
Debug/Exe/application.axf:     file format elf32-littlearm


Disassembly of section A0 rw:

00000000 <__vectors_table>:
       0:	1ffffffc 	.word	0x1ffffffc
       4:	00000101 	.word	0x00000101
       8:	00000109 	.word	0x00000109
       c:	0000010d 	.word	0x0000010d
      10:	00000121 	.word	0x00000121
      14:	00000125 	.word	0x00000125
      18:	00000129 	.word	0x00000129
	...

00000100 <Reset_Handler>:
     100:	f8df d028 	ldr.w	sp, [pc, #40]	; 12c <UsageFault_Handler+0x4>
     104:	f000 b95e 	b.w	3c4 <HalResetVsr>

00000108 <NMI_Handler>:
     108:	f000 bbea 	b.w	8e0 <HalNMIHandler>

0000010c <HardFault_Handler>:
     10c:	f01e 0f04 	tst.w	lr, #4
     110:	bf0c      	ite	eq
     112:	f3ef 8008 	mrseq	r0, MSP
     116:	f3ef 8009 	mrsne	r0, PSP
     11a:	f000 bbf9 	b.w	910 <HalHardFaultHandler>
	...

00000120 <MemManage_Handler>:
     120:	f000 bd72 	b.w	c08 <HalMemManageHandler>

00000124 <BusFault_Handler>:
     124:	f000 bd88 	b.w	c38 <HalBusFaultHandler>

00000128 <UsageFault_Handler>:
     128:	f000 bd9e 	b.w	c68 <HalUsageFaultHandler>
     12c:	1ffffffc 	.word	0x1ffffffc
	...

00000200 <HalLogUartInit>:
     200:	b5f0      	push	{r4, r5, r6, r7, lr}
     202:	f243 0504 	movw	r5, #12292	; 0x3004
     206:	f243 040c 	movw	r4, #12300	; 0x300c
     20a:	f2c4 0500 	movt	r5, #16384	; 0x4000
     20e:	f2c4 0400 	movt	r4, #16384	; 0x4000
     212:	b085      	sub	sp, #20
     214:	ae04      	add	r6, sp, #16
     216:	e906 000f 	stmdb	r6, {r0, r1, r2, r3}
     21a:	2200      	movs	r2, #0
     21c:	2380      	movs	r3, #128	; 0x80
     21e:	9e02      	ldr	r6, [sp, #8]
     220:	602a      	str	r2, [r5, #0]
     222:	6023      	str	r3, [r4, #0]
     224:	f000 f896 	bl	354 <HalGetCpuClk>
     228:	9b00      	ldr	r3, [sp, #0]
     22a:	0880      	lsrs	r0, r0, #2
     22c:	eb00 0280 	add.w	r2, r0, r0, lsl #2
     230:	011b      	lsls	r3, r3, #4
     232:	fbb0 f0f3 	udiv	r0, r0, r3
     236:	0052      	lsls	r2, r2, #1
     238:	fbb2 f3f3 	udiv	r3, r2, r3
     23c:	eb00 0280 	add.w	r2, r0, r0, lsl #2
     240:	eba3 0342 	sub.w	r3, r3, r2, lsl #1
     244:	2b04      	cmp	r3, #4
     246:	f243 020c 	movw	r2, #12300	; 0x300c
     24a:	f243 0304 	movw	r3, #12292	; 0x3004
     24e:	f243 0108 	movw	r1, #12296	; 0x3008
     252:	f44f 5440 	mov.w	r4, #12288	; 0x3000
     256:	f2c4 0200 	movt	r2, #16384	; 0x4000
     25a:	f2c4 0400 	movt	r4, #16384	; 0x4000
     25e:	f2c4 0300 	movt	r3, #16384	; 0x4000
     262:	f2c4 0100 	movt	r1, #16384	; 0x4000
     266:	bf88      	it	hi
     268:	3001      	addhi	r0, #1
     26a:	b2c7      	uxtb	r7, r0
     26c:	2500      	movs	r5, #0
     26e:	f3c0 2007 	ubfx	r0, r0, #8, #8
     272:	6027      	str	r7, [r4, #0]
     274:	6018      	str	r0, [r3, #0]
     276:	6015      	str	r5, [r2, #0]
     278:	f89d 500d 	ldrb.w	r5, [sp, #13]
     27c:	f89d 000c 	ldrb.w	r0, [sp, #12]
     280:	f89d 400e 	ldrb.w	r4, [sp, #14]
     284:	4328      	orrs	r0, r5
     286:	4320      	orrs	r0, r4
     288:	6010      	str	r0, [r2, #0]
     28a:	9a01      	ldr	r2, [sp, #4]
     28c:	600a      	str	r2, [r1, #0]
     28e:	601e      	str	r6, [r3, #0]
     290:	b1f6      	cbz	r6, 2d0 <HalLogUartInit+0xd0>
     292:	f642 040c 	movw	r4, #10252	; 0x280c
     296:	f44f 416d 	mov.w	r1, #60672	; 0xed00
     29a:	f2c4 0400 	movt	r4, #16384	; 0x4000
     29e:	f2ce 0100 	movt	r1, #57344	; 0xe000
     2a2:	f64f 00ff 	movw	r0, #63743	; 0xf8ff
     2a6:	f44f 7340 	mov.w	r3, #768	; 0x300
     2aa:	f2c0 53fa 	movt	r3, #1530	; 0x5fa
     2ae:	f44f 4261 	mov.w	r2, #57600	; 0xe100
     2b2:	f2ce 0200 	movt	r2, #57344	; 0xe000
     2b6:	f04f 7580 	mov.w	r5, #16777216	; 0x1000000
     2ba:	6025      	str	r5, [r4, #0]
     2bc:	68cd      	ldr	r5, [r1, #12]
     2be:	24e0      	movs	r4, #224	; 0xe0
     2c0:	4028      	ands	r0, r5
     2c2:	4303      	orrs	r3, r0
     2c4:	f44f 2000 	mov.w	r0, #524288	; 0x80000
     2c8:	60cb      	str	r3, [r1, #12]
     2ca:	f882 4313 	strb.w	r4, [r2, #787]	; 0x313
     2ce:	6010      	str	r0, [r2, #0]
     2d0:	2000      	movs	r0, #0
     2d2:	b005      	add	sp, #20
     2d4:	bdf0      	pop	{r4, r5, r6, r7, pc}
     2d6:	bf00      	nop
     2d8:	f243 0114 	movw	r1, #12308	; 0x3014
     2dc:	f641 138b 	movw	r3, #6539	; 0x198b
     2e0:	f2c4 0100 	movt	r1, #16384	; 0x4000
     2e4:	e001      	b.n	2ea <HalLogUartInit+0xea>
     2e6:	3b01      	subs	r3, #1
     2e8:	d003      	beq.n	2f2 <HalLogUartInit+0xf2>
     2ea:	780a      	ldrb	r2, [r1, #0]
     2ec:	f012 0f60 	tst.w	r2, #96	; 0x60
     2f0:	d0f9      	beq.n	2e6 <HalLogUartInit+0xe6>
     2f2:	f44f 5340 	mov.w	r3, #12288	; 0x3000
     2f6:	f2c4 0300 	movt	r3, #16384	; 0x4000
     2fa:	280a      	cmp	r0, #10
     2fc:	bf08      	it	eq
     2fe:	220d      	moveq	r2, #13
     300:	7018      	strb	r0, [r3, #0]
     302:	bf08      	it	eq
     304:	701a      	strbeq	r2, [r3, #0]
     306:	4770      	bx	lr

00000308 <HalSerialGetcRtl8195a>:
     308:	b130      	cbz	r0, 318 <HalSerialGetcRtl8195a+0x10>
     30a:	f243 0214 	movw	r2, #12308	; 0x3014
     30e:	f2c4 0200 	movt	r2, #16384	; 0x4000
     312:	7813      	ldrb	r3, [r2, #0]
     314:	07db      	lsls	r3, r3, #31
     316:	d5fc      	bpl.n	312 <HalSerialGetcRtl8195a+0xa>
     318:	f44f 5340 	mov.w	r3, #12288	; 0x3000
     31c:	f2c4 0300 	movt	r3, #16384	; 0x4000
     320:	7818      	ldrb	r0, [r3, #0]
     322:	b2c0      	uxtb	r0, r0
     324:	4770      	bx	lr
     326:	bf00      	nop

00000328 <HalSerialGetIsrEnRegRtl8195a>:
     328:	f243 0304 	movw	r3, #12292	; 0x3004
     32c:	f2c4 0300 	movt	r3, #16384	; 0x4000
     330:	6818      	ldr	r0, [r3, #0]
     332:	4770      	bx	lr

00000334 <HalSerialSetIrqEnRegRtl8195a>:
     334:	f243 0304 	movw	r3, #12292	; 0x3004
     338:	f2c4 0300 	movt	r3, #16384	; 0x4000
     33c:	6018      	str	r0, [r3, #0]
     33e:	4770      	bx	lr

00000340 <HalCpuClkConfig>:
     340:	2314      	movs	r3, #20
     342:	f2c4 0300 	movt	r3, #16384	; 0x4000
     346:	681a      	ldr	r2, [r3, #0]
     348:	f022 0270 	bic.w	r2, r2, #112	; 0x70
     34c:	ea42 1000 	orr.w	r0, r2, r0, lsl #4
     350:	6018      	str	r0, [r3, #0]
     352:	4770      	bx	lr

00000354 <HalGetCpuClk>:
     354:	f640 4368 	movw	r3, #3176	; 0xc68
     358:	2114      	movs	r1, #20
     35a:	f2c4 0100 	movt	r1, #16384	; 0x4000
     35e:	2274      	movs	r2, #116	; 0x74
     360:	f2c4 0200 	movt	r2, #16384	; 0x4000
     364:	f2c0 0303 	movt	r3, #3
     368:	6809      	ldr	r1, [r1, #0]
     36a:	6812      	ldr	r2, [r2, #0]
     36c:	f3c1 1102 	ubfx	r1, r1, #4, #3
     370:	f853 0021 	ldr.w	r0, [r3, r1, lsl #2]
     374:	0393      	lsls	r3, r2, #14
     376:	d40f      	bmi.n	398 <HalGetCpuClk+0x44>
     378:	f44f 6310 	mov.w	r3, #2304	; 0x900
     37c:	f2c0 033d 	movt	r3, #61	; 0x3d
     380:	4298      	cmp	r0, r3
     382:	bf81      	itttt	hi
     384:	f64a 23ab 	movwhi	r3, #43691	; 0xaaab
     388:	f6ca 23aa 	movthi	r3, #43690	; 0xaaaa
     38c:	eb00 0080 	addhi.w	r0, r0, r0, lsl #2
     390:	fba3 2000 	umullhi	r2, r0, r3, r0
     394:	bf88      	it	hi
     396:	0880      	lsrhi	r0, r0, #2
     398:	4770      	bx	lr
     39a:	bf00      	nop

0000039c <HalRomInfo>:
     39c:	f44f 73fc 	mov.w	r3, #504	; 0x1f8
     3a0:	f2c4 0300 	movt	r3, #16384	; 0x4000
     3a4:	681a      	ldr	r2, [r3, #0]
     3a6:	f022 02ff 	bic.w	r2, r2, #255	; 0xff
     3aa:	f042 0202 	orr.w	r2, r2, #2
     3ae:	601a      	str	r2, [r3, #0]
     3b0:	4770      	bx	lr
     3b2:	bf00      	nop

000003b4 <HalGetRomInfo>:
     3b4:	f44f 73fc 	mov.w	r3, #504	; 0x1f8
     3b8:	f2c4 0300 	movt	r3, #16384	; 0x4000
     3bc:	6818      	ldr	r0, [r3, #0]
     3be:	b2c0      	uxtb	r0, r0
     3c0:	4770      	bx	lr
     3c2:	bf00      	nop

000003c4 <HalResetVsr>:
     3c4:	f240 3000 	movw	r0, #768	; 0x300
     3c8:	f640 32c8 	movw	r2, #3016	; 0xbc8
     3cc:	f2c1 0000 	movt	r0, #4096	; 0x1000
     3d0:	f2c1 0200 	movt	r2, #4096	; 0x1000
     3d4:	f24f 5311 	movw	r3, #62737	; 0xf511
     3d8:	e92d 4ff0 	stmdb	sp!, {r4, r5, r6, r7, r8, r9, sl, fp, lr}
     3dc:	1a12      	subs	r2, r2, r0
     3de:	b08d      	sub	sp, #52	; 0x34
     3e0:	f2c0 0300 	movt	r3, #0
     3e4:	2100      	movs	r1, #0
     3e6:	4798      	blx	r3
     3e8:	f7ff ffd8 	bl	39c <HalRomInfo>
     3ec:	f44f 730c 	mov.w	r3, #560	; 0x230
     3f0:	f2c4 0300 	movt	r3, #16384	; 0x4000
     3f4:	681a      	ldr	r2, [r3, #0]
     3f6:	2100      	movs	r1, #0
     3f8:	f042 0240 	orr.w	r2, r2, #64	; 0x40
     3fc:	601a      	str	r2, [r3, #0]
     3fe:	681a      	ldr	r2, [r3, #0]
     400:	20d8      	movs	r0, #216	; 0xd8
     402:	f042 0280 	orr.w	r2, r2, #128	; 0x80
     406:	601a      	str	r2, [r3, #0]
     408:	2201      	movs	r2, #1
     40a:	f002 fb95 	bl	2b38 <HalPinCtrlRtl8195A>
     40e:	f44f 734e 	mov.w	r3, #824	; 0x338
     412:	f2c4 0300 	movt	r3, #16384	; 0x4000
     416:	f44f 7204 	mov.w	r2, #528	; 0x210
     41a:	f2c4 0200 	movt	r2, #16384	; 0x4000
     41e:	f640 37c8 	movw	r7, #3016	; 0xbc8
     422:	6819      	ldr	r1, [r3, #0]
     424:	f2c1 0700 	movt	r7, #4096	; 0x1000
     428:	f021 0103 	bic.w	r1, r1, #3
     42c:	f041 0102 	orr.w	r1, r1, #2
     430:	6019      	str	r1, [r3, #0]
     432:	6813      	ldr	r3, [r2, #0]
     434:	009a      	lsls	r2, r3, #2
     436:	f100 8224 	bmi.w	882 <HalResetVsr+0x4be>
     43a:	f44f 7304 	mov.w	r3, #528	; 0x210
     43e:	f2c4 0300 	movt	r3, #16384	; 0x4000
     442:	681b      	ldr	r3, [r3, #0]
     444:	011b      	lsls	r3, r3, #4
     446:	f100 8219 	bmi.w	87c <HalResetVsr+0x4b8>
     44a:	f44f 73fa 	mov.w	r3, #500	; 0x1f4
     44e:	f2c4 0300 	movt	r3, #16384	; 0x4000
     452:	681b      	ldr	r3, [r3, #0]
     454:	011e      	lsls	r6, r3, #4
     456:	d51d      	bpl.n	494 <HalResetVsr+0xd0>
     458:	2320      	movs	r3, #32
     45a:	f2c4 0300 	movt	r3, #16384	; 0x4000
     45e:	f44f 7204 	mov.w	r2, #528	; 0x210
     462:	f2c4 0200 	movt	r2, #16384	; 0x4000
     466:	6819      	ldr	r1, [r3, #0]
     468:	f441 3100 	orr.w	r1, r1, #131072	; 0x20000
     46c:	6019      	str	r1, [r3, #0]
     46e:	6813      	ldr	r3, [r2, #0]
     470:	2b00      	cmp	r3, #0
     472:	f2c0 820c 	blt.w	88e <HalResetVsr+0x4ca>
     476:	f44f 7304 	mov.w	r3, #528	; 0x210
     47a:	f2c4 0300 	movt	r3, #16384	; 0x4000
     47e:	681b      	ldr	r3, [r3, #0]
     480:	00d8      	lsls	r0, r3, #3
     482:	f100 8201 	bmi.w	888 <HalResetVsr+0x4c4>
     486:	f44f 7304 	mov.w	r3, #528	; 0x210
     48a:	f2c4 0300 	movt	r3, #16384	; 0x4000
     48e:	681a      	ldr	r2, [r3, #0]
     490:	0051      	lsls	r1, r2, #1
     492:	d5fc      	bpl.n	48e <HalResetVsr+0xca>
     494:	f240 3414 	movw	r4, #788	; 0x314
     498:	2002      	movs	r0, #2
     49a:	f7ff ff51 	bl	340 <HalCpuClkConfig>
     49e:	f44f 7a04 	mov.w	sl, #528	; 0x210
     4a2:	f64f 70fc 	movw	r0, #65532	; 0xfffc
     4a6:	f643 53e5 	movw	r3, #15845	; 0x3de5
     4aa:	f2c4 0a00 	movt	sl, #16384	; 0x4000
     4ae:	f2c1 0400 	movt	r4, #4096	; 0x1000
     4b2:	f44f 780c 	mov.w	r8, #560	; 0x230
     4b6:	f2c4 0800 	movt	r8, #16384	; 0x4000
     4ba:	f04f 32ff 	mov.w	r2, #4294967295
     4be:	f6c1 70ff 	movt	r0, #8191	; 0x1fff
     4c2:	f2c0 0300 	movt	r3, #0
     4c6:	6022      	str	r2, [r4, #0]
     4c8:	4798      	blx	r3
     4ca:	f8da 3000 	ldr.w	r3, [sl]
     4ce:	2100      	movs	r1, #0
     4d0:	f443 5380 	orr.w	r3, r3, #4096	; 0x1000
     4d4:	f8ca 3000 	str.w	r3, [sl]
     4d8:	f8d8 3000 	ldr.w	r3, [r8]
     4dc:	2201      	movs	r2, #1
     4de:	f443 5380 	orr.w	r3, r3, #4096	; 0x1000
     4e2:	f8c8 3000 	str.w	r3, [r8]
     4e6:	20dc      	movs	r0, #220	; 0xdc
     4e8:	f002 fb26 	bl	2b38 <HalPinCtrlRtl8195A>
     4ec:	f64e 3ef5 	movw	lr, #60405	; 0xebf5
     4f0:	f240 2901 	movw	r9, #513	; 0x201
     4f4:	f2c0 0e00 	movt	lr, #0
     4f8:	2500      	movs	r5, #0
     4fa:	f44f 4116 	mov.w	r1, #38400	; 0x9600
     4fe:	2203      	movs	r2, #3
     500:	23c1      	movs	r3, #193	; 0xc1
     502:	9506      	str	r5, [sp, #24]
     504:	f88d 501c 	strb.w	r5, [sp, #28]
     508:	f88d 501d 	strb.w	r5, [sp, #29]
     50c:	ae04      	add	r6, sp, #16
     50e:	9104      	str	r1, [sp, #16]
     510:	f88d 201e 	strb.w	r2, [sp, #30]
     514:	9305      	str	r3, [sp, #20]
     516:	f04f 0c58 	mov.w	ip, #88	; 0x58
     51a:	e896 000f 	ldmia.w	r6, {r0, r1, r2, r3}
     51e:	f2c0 0900 	movt	r9, #0
     522:	f8cd e000 	str.w	lr, [sp]
     526:	f8cd c004 	str.w	ip, [sp, #4]
     52a:	9502      	str	r5, [sp, #8]
     52c:	9503      	str	r5, [sp, #12]
     52e:	47c8      	blx	r9
     530:	f244 0329 	movw	r3, #16425	; 0x4029
     534:	4668      	mov	r0, sp
     536:	f2c0 0300 	movt	r3, #0
     53a:	4798      	blx	r3
     53c:	2305      	movs	r3, #5
     53e:	9306      	str	r3, [sp, #24]
     540:	e896 000f 	ldmia.w	r6, {r0, r1, r2, r3}
     544:	47c8      	blx	r9
     546:	f00e f92f 	bl	e7a8 <GetRomCmdNum>
     54a:	f241 62a0 	movw	r2, #5792	; 0x16a0
     54e:	f240 3b18 	movw	fp, #792	; 0x318
     552:	4601      	mov	r1, r0
     554:	f2c0 0203 	movt	r2, #3
     558:	4628      	mov	r0, r5
     55a:	f00e fbb3 	bl	ecc4 <RtlConsolInit>
     55e:	f44f 721c 	mov.w	r2, #624	; 0x270
     562:	f2c4 0200 	movt	r2, #16384	; 0x4000
     566:	f44f 7301 	mov.w	r3, #516	; 0x204
     56a:	f2c4 0300 	movt	r3, #16384	; 0x4000
     56e:	f2c1 0b00 	movt	fp, #4096	; 0x1000
     572:	6811      	ldr	r1, [r2, #0]
     574:	4658      	mov	r0, fp
     576:	f041 0101 	orr.w	r1, r1, #1
     57a:	6011      	str	r1, [r2, #0]
     57c:	f8da 1000 	ldr.w	r1, [sl]
     580:	2201      	movs	r2, #1
     582:	f441 3180 	orr.w	r1, r1, #65536	; 0x10000
     586:	f8ca 1000 	str.w	r1, [sl]
     58a:	f8d8 1000 	ldr.w	r1, [r8]
     58e:	f441 4180 	orr.w	r1, r1, #16384	; 0x4000
     592:	f8c8 1000 	str.w	r1, [r8]
     596:	f8d8 1000 	ldr.w	r1, [r8]
     59a:	f441 4100 	orr.w	r1, r1, #32768	; 0x8000
     59e:	f8c8 1000 	str.w	r1, [r8]
     5a2:	6819      	ldr	r1, [r3, #0]
     5a4:	f021 0110 	bic.w	r1, r1, #16
     5a8:	6019      	str	r1, [r3, #0]
     5aa:	f88d 202d 	strb.w	r2, [sp, #45]	; 0x2d
     5ae:	f88d 202c 	strb.w	r2, [sp, #44]	; 0x2c
     5b2:	9505      	str	r5, [sp, #20]
     5b4:	9504      	str	r5, [sp, #16]
     5b6:	9506      	str	r5, [sp, #24]
     5b8:	f00e fc28 	bl	ee0c <HalTimerOpInit>
     5bc:	f8db 3004 	ldr.w	r3, [fp, #4]
     5c0:	4630      	mov	r0, r6
     5c2:	4798      	blx	r3
     5c4:	f7ff fef6 	bl	3b4 <HalGetRomInfo>
     5c8:	6823      	ldr	r3, [r4, #0]
     5ca:	4680      	mov	r8, r0
     5cc:	005d      	lsls	r5, r3, #1
     5ce:	f100 812c 	bmi.w	82a <HalResetVsr+0x466>
     5d2:	f247 55bd 	movw	r5, #30141	; 0x75bd
     5d6:	f2c1 0500 	movt	r5, #4096	; 0x1000
     5da:	f44f 7304 	mov.w	r3, #528	; 0x210
     5de:	f2c4 0300 	movt	r3, #16384	; 0x4000
     5e2:	681b      	ldr	r3, [r3, #0]
     5e4:	0159      	lsls	r1, r3, #5
     5e6:	f100 811d 	bmi.w	824 <HalResetVsr+0x460>
     5ea:	f44f 73fa 	mov.w	r3, #500	; 0x1f4
     5ee:	f2c4 0300 	movt	r3, #16384	; 0x4000
     5f2:	681b      	ldr	r3, [r3, #0]
     5f4:	f003 4370 	and.w	r3, r3, #4026531840	; 0xf0000000
     5f8:	f1b3 5f00 	cmp.w	r3, #536870912	; 0x20000000
     5fc:	f000 80f4 	beq.w	7e8 <HalResetVsr+0x424>
     600:	2338      	movs	r3, #56	; 0x38
     602:	f2c4 0300 	movt	r3, #16384	; 0x4000
     606:	681b      	ldr	r3, [r3, #0]
     608:	ea4f 6813 	mov.w	r8, r3, lsr #24
     60c:	f3c8 0381 	ubfx	r3, r8, #2, #2
     610:	f3c8 1801 	ubfx	r8, r8, #4, #2
     614:	b1d3      	cbz	r3, 64c <HalResetVsr+0x288>
     616:	2b01      	cmp	r3, #1
     618:	f000 80e2 	beq.w	7e0 <HalResetVsr+0x41c>
     61c:	2b02      	cmp	r3, #2
     61e:	d102      	bne.n	626 <HalResetVsr+0x262>
     620:	2001      	movs	r0, #1
     622:	f7ff fe8d 	bl	340 <HalCpuClkConfig>
     626:	2300      	movs	r3, #0
     628:	2003      	movs	r0, #3
     62a:	21c1      	movs	r1, #193	; 0xc1
     62c:	2205      	movs	r2, #5
     62e:	f44f 4e16 	mov.w	lr, #38400	; 0x9600
     632:	f8cd e010 	str.w	lr, [sp, #16]
     636:	f88d 001e 	strb.w	r0, [sp, #30]
     63a:	9105      	str	r1, [sp, #20]
     63c:	9206      	str	r2, [sp, #24]
     63e:	f88d 301c 	strb.w	r3, [sp, #28]
     642:	f88d 301d 	strb.w	r3, [sp, #29]
     646:	e896 000f 	ldmia.w	r6, {r0, r1, r2, r3}
     64a:	47c8      	blx	r9
     64c:	f240 3614 	movw	r6, #788	; 0x314
     650:	6823      	ldr	r3, [r4, #0]
     652:	f2c1 0600 	movt	r6, #4096	; 0x1000
     656:	f013 4380 	ands.w	r3, r3, #1073741824	; 0x40000000
     65a:	f040 80b8 	bne.w	7ce <HalResetVsr+0x40a>
     65e:	f1b8 0f01 	cmp.w	r8, #1
     662:	f000 80ab 	beq.w	7bc <HalResetVsr+0x3f8>
     666:	f1b8 0f02 	cmp.w	r8, #2
     66a:	f000 8082 	beq.w	772 <HalResetVsr+0x3ae>
     66e:	f1b8 0f00 	cmp.w	r8, #0
     672:	d00c      	beq.n	68e <HalResetVsr+0x2ca>
     674:	b123      	cbz	r3, 680 <HalResetVsr+0x2bc>
     676:	f64e 603c 	movw	r0, #60988	; 0xee3c
     67a:	f2c0 0003 	movt	r0, #3
     67e:	47a8      	blx	r5
     680:	f248 60a0 	movw	r0, #34464	; 0x86a0
     684:	f2c0 0001 	movt	r0, #1
     688:	f00e fba0 	bl	edcc <RtlConsolRom>
     68c:	e7fe      	b.n	68c <HalResetVsr+0x2c8>
     68e:	b123      	cbz	r3, 69a <HalResetVsr+0x2d6>
     690:	f64e 5038 	movw	r0, #60728	; 0xed38
     694:	f2c0 0003 	movt	r0, #3
     698:	47a8      	blx	r5
     69a:	f44f 71fa 	mov.w	r1, #500	; 0x1f4
     69e:	f2c4 0100 	movt	r1, #16384	; 0x4000
     6a2:	f44f 7204 	mov.w	r2, #528	; 0x210
     6a6:	f2c4 0200 	movt	r2, #16384	; 0x4000
     6aa:	f44f 730c 	mov.w	r3, #560	; 0x230
     6ae:	f2c4 0300 	movt	r3, #16384	; 0x4000
     6b2:	6809      	ldr	r1, [r1, #0]
     6b4:	6810      	ldr	r0, [r2, #0]
     6b6:	f001 4170 	and.w	r1, r1, #4026531840	; 0xf0000000
     6ba:	f1a1 5140 	sub.w	r1, r1, #805306368	; 0x30000000
     6be:	fab1 f181 	clz	r1, r1
     6c2:	f040 0010 	orr.w	r0, r0, #16
     6c6:	6010      	str	r0, [r2, #0]
     6c8:	681a      	ldr	r2, [r3, #0]
     6ca:	0949      	lsrs	r1, r1, #5
     6cc:	f442 7280 	orr.w	r2, r2, #256	; 0x100
     6d0:	601a      	str	r2, [r3, #0]
     6d2:	681a      	ldr	r2, [r3, #0]
     6d4:	20c4      	movs	r0, #196	; 0xc4
     6d6:	f442 7200 	orr.w	r2, r2, #512	; 0x200
     6da:	601a      	str	r2, [r3, #0]
     6dc:	2201      	movs	r2, #1
     6de:	f002 fa2b 	bl	2b38 <HalPinCtrlRtl8195A>
     6e2:	2001      	movs	r0, #1
     6e4:	2100      	movs	r1, #0
     6e6:	f002 fcfd 	bl	30e4 <SpicInitRtl8195A>
     6ea:	2210      	movs	r2, #16
     6ec:	2314      	movs	r3, #20
     6ee:	f6c9 0200 	movt	r2, #38912	; 0x9800
     6f2:	f6c9 0300 	movt	r3, #38912	; 0x9800
     6f6:	6821      	ldr	r1, [r4, #0]
     6f8:	f8d2 8000 	ldr.w	r8, [r2]
     6fc:	0048      	lsls	r0, r1, #1
     6fe:	681e      	ldr	r6, [r3, #0]
     700:	d506      	bpl.n	710 <HalResetVsr+0x34c>
     702:	f64e 5048 	movw	r0, #60744	; 0xed48
     706:	4641      	mov	r1, r8
     708:	f2c0 0003 	movt	r0, #3
     70c:	4632      	mov	r2, r6
     70e:	47a8      	blx	r5
     710:	f108 0820 	add.w	r8, r8, #32
     714:	f1b8 0f20 	cmp.w	r8, #32
     718:	bf84      	itt	hi
     71a:	3e20      	subhi	r6, #32
     71c:	2320      	movhi	r3, #32
     71e:	d906      	bls.n	72e <HalResetVsr+0x36a>
     720:	f103 4218 	add.w	r2, r3, #2550136832	; 0x98000000
     724:	6812      	ldr	r2, [r2, #0]
     726:	50f2      	str	r2, [r6, r3]
     728:	3304      	adds	r3, #4
     72a:	4543      	cmp	r3, r8
     72c:	d3f8      	bcc.n	720 <HalResetVsr+0x35c>
     72e:	f640 32dc 	movw	r2, #3036	; 0xbdc
     732:	f2c1 0200 	movt	r2, #4096	; 0x1000
     736:	7813      	ldrb	r3, [r2, #0]
     738:	2b23      	cmp	r3, #35	; 0x23
     73a:	bf04      	itt	eq
     73c:	4855      	ldreq	r0, [pc, #340]	; (894 <HalResetVsr+0x4d0>)
     73e:	2300      	moveq	r3, #0
     740:	d003      	beq.n	74a <HalResetVsr+0x386>
     742:	e01e      	b.n	782 <HalResetVsr+0x3be>
     744:	5cd6      	ldrb	r6, [r2, r3]
     746:	428e      	cmp	r6, r1
     748:	d11b      	bne.n	782 <HalResetVsr+0x3be>
     74a:	3301      	adds	r3, #1
     74c:	5cc1      	ldrb	r1, [r0, r3]
     74e:	29ff      	cmp	r1, #255	; 0xff
     750:	d1f8      	bne.n	744 <HalResetVsr+0x380>
     752:	6823      	ldr	r3, [r4, #0]
     754:	005b      	lsls	r3, r3, #1
     756:	d504      	bpl.n	762 <HalResetVsr+0x39e>
     758:	f64e 50d0 	movw	r0, #60880	; 0xedd0
     75c:	f2c0 0003 	movt	r0, #3
     760:	47a8      	blx	r5
     762:	2100      	movs	r1, #0
     764:	460a      	mov	r2, r1
     766:	20d8      	movs	r0, #216	; 0xd8
     768:	f002 f9e6 	bl	2b38 <HalPinCtrlRtl8195A>
     76c:	683b      	ldr	r3, [r7, #0]
     76e:	4798      	blx	r3
     770:	e78c      	b.n	68c <HalResetVsr+0x2c8>
     772:	2b00      	cmp	r3, #0
     774:	d084      	beq.n	680 <HalResetVsr+0x2bc>
     776:	f64e 601c 	movw	r0, #60956	; 0xee1c
     77a:	f2c0 0003 	movt	r0, #3
     77e:	47a8      	blx	r5
     780:	e77e      	b.n	680 <HalResetVsr+0x2bc>
     782:	f240 3614 	movw	r6, #788	; 0x314
     786:	6823      	ldr	r3, [r4, #0]
     788:	f2c1 0600 	movt	r6, #4096	; 0x1000
     78c:	0059      	lsls	r1, r3, #1
     78e:	d50d      	bpl.n	7ac <HalResetVsr+0x3e8>
     790:	f64e 5070 	movw	r0, #60784	; 0xed70
     794:	f2c0 0003 	movt	r0, #3
     798:	47a8      	blx	r5
     79a:	6833      	ldr	r3, [r6, #0]
     79c:	e006      	b.n	7ac <HalResetVsr+0x3e8>
     79e:	f248 60a0 	movw	r0, #34464	; 0x86a0
     7a2:	f2c0 0001 	movt	r0, #1
     7a6:	f00e fb11 	bl	edcc <RtlConsolRom>
     7aa:	6823      	ldr	r3, [r4, #0]
     7ac:	005a      	lsls	r2, r3, #1
     7ae:	d5f6      	bpl.n	79e <HalResetVsr+0x3da>
     7b0:	f64e 5094 	movw	r0, #60820	; 0xed94
     7b4:	f2c0 0003 	movt	r0, #3
     7b8:	47a8      	blx	r5
     7ba:	e7f0      	b.n	79e <HalResetVsr+0x3da>
     7bc:	2b00      	cmp	r3, #0
     7be:	f43f af5f 	beq.w	680 <HalResetVsr+0x2bc>
     7c2:	f64e 50fc 	movw	r0, #60924	; 0xedfc
     7c6:	f2c0 0003 	movt	r0, #3
     7ca:	47a8      	blx	r5
     7cc:	e758      	b.n	680 <HalResetVsr+0x2bc>
     7ce:	f64e 5018 	movw	r0, #60696	; 0xed18
     7d2:	f2c0 0003 	movt	r0, #3
     7d6:	47a8      	blx	r5
     7d8:	6833      	ldr	r3, [r6, #0]
     7da:	f003 4380 	and.w	r3, r3, #1073741824	; 0x40000000
     7de:	e73e      	b.n	65e <HalResetVsr+0x29a>
     7e0:	2003      	movs	r0, #3
     7e2:	f7ff fdad 	bl	340 <HalCpuClkConfig>
     7e6:	e71e      	b.n	626 <HalResetVsr+0x262>
     7e8:	6823      	ldr	r3, [r4, #0]
     7ea:	005a      	lsls	r2, r3, #1
     7ec:	d504      	bpl.n	7f8 <HalResetVsr+0x434>
     7ee:	f64e 500c 	movw	r0, #60684	; 0xed0c
     7f2:	f2c0 0003 	movt	r0, #3
     7f6:	47a8      	blx	r5
     7f8:	f44f 73fa 	mov.w	r3, #500	; 0x1f4
     7fc:	f2c4 0300 	movt	r3, #16384	; 0x4000
     800:	681b      	ldr	r3, [r3, #0]
     802:	01db      	lsls	r3, r3, #7
     804:	f57f aefc 	bpl.w	600 <HalResetVsr+0x23c>
     808:	2338      	movs	r3, #56	; 0x38
     80a:	f2c4 0300 	movt	r3, #16384	; 0x4000
     80e:	681b      	ldr	r3, [r3, #0]
     810:	2b00      	cmp	r3, #0
     812:	f6bf aef5 	bge.w	600 <HalResetVsr+0x23c>
     816:	f248 60a0 	movw	r0, #34464	; 0x86a0
     81a:	f2c0 0001 	movt	r0, #1
     81e:	f00e fad5 	bl	edcc <RtlConsolRom>
     822:	e6ed      	b.n	600 <HalResetVsr+0x23c>
     824:	693b      	ldr	r3, [r7, #16]
     826:	4798      	blx	r3
     828:	e6df      	b.n	5ea <HalResetVsr+0x226>
     82a:	f64e 4024 	movw	r0, #60452	; 0xec24
     82e:	f247 55bd 	movw	r5, #30141	; 0x75bd
     832:	f2c0 0003 	movt	r0, #3
     836:	f2c1 0500 	movt	r5, #4096	; 0x1000
     83a:	47a8      	blx	r5
     83c:	6823      	ldr	r3, [r4, #0]
     83e:	005a      	lsls	r2, r3, #1
     840:	f57f aecb 	bpl.w	5da <HalResetVsr+0x216>
     844:	f64e 4064 	movw	r0, #60516	; 0xec64
     848:	ea4f 1118 	mov.w	r1, r8, lsr #4
     84c:	f2c0 0003 	movt	r0, #3
     850:	f008 020f 	and.w	r2, r8, #15
     854:	47a8      	blx	r5
     856:	6823      	ldr	r3, [r4, #0]
     858:	005b      	lsls	r3, r3, #1
     85a:	f57f aebe 	bpl.w	5da <HalResetVsr+0x216>
     85e:	f64e 407c 	movw	r0, #60540	; 0xec7c
     862:	f2c0 0003 	movt	r0, #3
     866:	47a8      	blx	r5
     868:	6823      	ldr	r3, [r4, #0]
     86a:	0058      	lsls	r0, r3, #1
     86c:	f57f aeb5 	bpl.w	5da <HalResetVsr+0x216>
     870:	f64e 40d0 	movw	r0, #60624	; 0xecd0
     874:	f2c0 0003 	movt	r0, #3
     878:	47a8      	blx	r5
     87a:	e6ae      	b.n	5da <HalResetVsr+0x216>
     87c:	68fb      	ldr	r3, [r7, #12]
     87e:	4798      	blx	r3
     880:	e5e3      	b.n	44a <HalResetVsr+0x86>
     882:	687b      	ldr	r3, [r7, #4]
     884:	4798      	blx	r3
     886:	e5d8      	b.n	43a <HalResetVsr+0x76>
     888:	68bb      	ldr	r3, [r7, #8]
     88a:	4798      	blx	r3
     88c:	e5fb      	b.n	486 <HalResetVsr+0xc2>
     88e:	683b      	ldr	r3, [r7, #0]
     890:	4798      	blx	r3
     892:	e5f0      	b.n	476 <HalResetVsr+0xb2>
     894:	00030c80 	.word	0x00030c80

00000898 <HalDelayUs>:
     898:	f241 0385 	movw	r3, #4229	; 0x1085
     89c:	b570      	push	{r4, r5, r6, lr}
     89e:	f240 3518 	movw	r5, #792	; 0x318
     8a2:	f6c0 0342 	movt	r3, #2114	; 0x842
     8a6:	f2c1 0500 	movt	r5, #4096	; 0x1000
     8aa:	fba3 2300 	umull	r2, r3, r3, r0
     8ae:	1ac6      	subs	r6, r0, r3
     8b0:	eb03 0656 	add.w	r6, r3, r6, lsr #1
     8b4:	0936      	lsrs	r6, r6, #4
     8b6:	f04f 0001 	mov.w	r0, #1
     8ba:	68ab      	ldr	r3, [r5, #8]
     8bc:	bf08      	it	eq
     8be:	4606      	moveq	r6, r0
     8c0:	4798      	blx	r3
     8c2:	4604      	mov	r4, r0
     8c4:	68ab      	ldr	r3, [r5, #8]
     8c6:	2001      	movs	r0, #1
     8c8:	4798      	blx	r3
     8ca:	4284      	cmp	r4, r0
     8cc:	eba4 0300 	sub.w	r3, r4, r0
     8d0:	bf34      	ite	cc
     8d2:	f103 30ff 	addcc.w	r0, r3, #4294967295
     8d6:	1a20      	subcs	r0, r4, r0
     8d8:	42b0      	cmp	r0, r6
     8da:	d9f3      	bls.n	8c4 <HalDelayUs+0x2c>
     8dc:	2000      	movs	r0, #0
     8de:	bd70      	pop	{r4, r5, r6, pc}

000008e0 <HalNMIHandler>:
     8e0:	f240 3214 	movw	r2, #788	; 0x314
     8e4:	f2c1 0200 	movt	r2, #4096	; 0x1000
     8e8:	b508      	push	{r3, lr}
     8ea:	f44f 5300 	mov.w	r3, #8192	; 0x2000
     8ee:	f2c4 0300 	movt	r3, #16384	; 0x4000
     8f2:	6812      	ldr	r2, [r2, #0]
     8f4:	4013      	ands	r3, r2
     8f6:	b903      	cbnz	r3, 8fa <HalNMIHandler+0x1a>
     8f8:	e7fe      	b.n	8f8 <HalNMIHandler+0x18>
     8fa:	f64e 605c 	movw	r0, #61020	; 0xee5c
     8fe:	f247 53bd 	movw	r3, #30141	; 0x75bd
     902:	f2c0 0003 	movt	r0, #3
     906:	f2c1 0300 	movt	r3, #4096	; 0x1000
     90a:	4798      	blx	r3
     90c:	e7f4      	b.n	8f8 <HalNMIHandler+0x18>
     90e:	bf00      	nop

00000910 <HalHardFaultHandler>:
     910:	e92d 4ff0 	stmdb	sp!, {r4, r5, r6, r7, r8, r9, sl, fp, lr}
     914:	f240 3614 	movw	r6, #788	; 0x314
     918:	f2c1 0600 	movt	r6, #4096	; 0x1000
     91c:	f44f 5300 	mov.w	r3, #8192	; 0x2000
     920:	f2c4 0300 	movt	r3, #16384	; 0x4000
     924:	6832      	ldr	r2, [r6, #0]
     926:	b08b      	sub	sp, #44	; 0x2c
     928:	4013      	ands	r3, r2
     92a:	4605      	mov	r5, r0
     92c:	2b00      	cmp	r3, #0
     92e:	f040 815a 	bne.w	be6 <HalHardFaultHandler+0x2d6>
     932:	f247 54bd 	movw	r4, #30141	; 0x75bd
     936:	f2c1 0400 	movt	r4, #4096	; 0x1000
     93a:	f64e 5b38 	movw	fp, #60728	; 0xed38
     93e:	f64e 5c28 	movw	ip, #60712	; 0xed28
     942:	f64e 5e2c 	movw	lr, #60716	; 0xed2c
     946:	f64e 5030 	movw	r0, #60720	; 0xed30
     94a:	f64e 523c 	movw	r2, #60732	; 0xed3c
     94e:	f2ce 0b00 	movt	fp, #57344	; 0xe000
     952:	f2ce 0c00 	movt	ip, #57344	; 0xe000
     956:	f2ce 0e00 	movt	lr, #57344	; 0xe000
     95a:	f2ce 0000 	movt	r0, #57344	; 0xe000
     95e:	f2ce 0200 	movt	r2, #57344	; 0xe000
     962:	6829      	ldr	r1, [r5, #0]
     964:	f8d5 a004 	ldr.w	sl, [r5, #4]
     968:	f8d5 9008 	ldr.w	r9, [r5, #8]
     96c:	68ef      	ldr	r7, [r5, #12]
     96e:	9702      	str	r7, [sp, #8]
     970:	692f      	ldr	r7, [r5, #16]
     972:	9701      	str	r7, [sp, #4]
     974:	696f      	ldr	r7, [r5, #20]
     976:	9703      	str	r7, [sp, #12]
     978:	69af      	ldr	r7, [r5, #24]
     97a:	9704      	str	r7, [sp, #16]
     97c:	69ef      	ldr	r7, [r5, #28]
     97e:	f8db b000 	ldr.w	fp, [fp]
     982:	f8dc 5000 	ldr.w	r5, [ip]
     986:	9506      	str	r5, [sp, #24]
     988:	f8de 5000 	ldr.w	r5, [lr]
     98c:	6800      	ldr	r0, [r0, #0]
     98e:	6812      	ldr	r2, [r2, #0]
     990:	9507      	str	r5, [sp, #28]
     992:	9008      	str	r0, [sp, #32]
     994:	9209      	str	r2, [sp, #36]	; 0x24
     996:	b903      	cbnz	r3, 99a <HalHardFaultHandler+0x8a>
     998:	e7fe      	b.n	998 <HalHardFaultHandler+0x88>
     99a:	f64e 60a4 	movw	r0, #61092	; 0xeea4
     99e:	f2c0 0003 	movt	r0, #3
     9a2:	47a0      	blx	r4
     9a4:	f44f 5200 	mov.w	r2, #8192	; 0x2000
     9a8:	f2c4 0200 	movt	r2, #16384	; 0x4000
     9ac:	f247 55bd 	movw	r5, #30141	; 0x75bd
     9b0:	f240 3814 	movw	r8, #788	; 0x314
     9b4:	6831      	ldr	r1, [r6, #0]
     9b6:	f2c1 0500 	movt	r5, #4096	; 0x1000
     9ba:	400a      	ands	r2, r1
     9bc:	f2c1 0800 	movt	r8, #4096	; 0x1000
     9c0:	2a00      	cmp	r2, #0
     9c2:	d0e9      	beq.n	998 <HalHardFaultHandler+0x88>
     9c4:	f64e 60c0 	movw	r0, #61120	; 0xeec0
     9c8:	4651      	mov	r1, sl
     9ca:	f2c0 0003 	movt	r0, #3
     9ce:	47a8      	blx	r5
     9d0:	f44f 5200 	mov.w	r2, #8192	; 0x2000
     9d4:	f2c4 0200 	movt	r2, #16384	; 0x4000
     9d8:	f8d8 1000 	ldr.w	r1, [r8]
     9dc:	400a      	ands	r2, r1
     9de:	2a00      	cmp	r2, #0
     9e0:	d0da      	beq.n	998 <HalHardFaultHandler+0x88>
     9e2:	f64e 60dc 	movw	r0, #61148	; 0xeedc
     9e6:	4649      	mov	r1, r9
     9e8:	f2c0 0003 	movt	r0, #3
     9ec:	47a8      	blx	r5
     9ee:	f44f 5200 	mov.w	r2, #8192	; 0x2000
     9f2:	f2c4 0200 	movt	r2, #16384	; 0x4000
     9f6:	f8d8 1000 	ldr.w	r1, [r8]
     9fa:	400a      	ands	r2, r1
     9fc:	2a00      	cmp	r2, #0
     9fe:	d0cb      	beq.n	998 <HalHardFaultHandler+0x88>
     a00:	f64e 60f8 	movw	r0, #61176	; 0xeef8
     a04:	9902      	ldr	r1, [sp, #8]
     a06:	f2c0 0003 	movt	r0, #3
     a0a:	47a8      	blx	r5
     a0c:	f44f 5200 	mov.w	r2, #8192	; 0x2000
     a10:	f2c4 0200 	movt	r2, #16384	; 0x4000
     a14:	f8d8 1000 	ldr.w	r1, [r8]
     a18:	400a      	ands	r2, r1
     a1a:	2a00      	cmp	r2, #0
     a1c:	d0bc      	beq.n	998 <HalHardFaultHandler+0x88>
     a1e:	f64e 7014 	movw	r0, #61204	; 0xef14
     a22:	9901      	ldr	r1, [sp, #4]
     a24:	f2c0 0003 	movt	r0, #3
     a28:	47a8      	blx	r5
     a2a:	f44f 5200 	mov.w	r2, #8192	; 0x2000
     a2e:	f2c4 0200 	movt	r2, #16384	; 0x4000
     a32:	f8d8 1000 	ldr.w	r1, [r8]
     a36:	400a      	ands	r2, r1
     a38:	2a00      	cmp	r2, #0
     a3a:	d0ad      	beq.n	998 <HalHardFaultHandler+0x88>
     a3c:	f64e 7030 	movw	r0, #61232	; 0xef30
     a40:	9903      	ldr	r1, [sp, #12]
     a42:	f2c0 0003 	movt	r0, #3
     a46:	47a8      	blx	r5
     a48:	f44f 5200 	mov.w	r2, #8192	; 0x2000
     a4c:	f2c4 0200 	movt	r2, #16384	; 0x4000
     a50:	f8d8 1000 	ldr.w	r1, [r8]
     a54:	400a      	ands	r2, r1
     a56:	2a00      	cmp	r2, #0
     a58:	d09e      	beq.n	998 <HalHardFaultHandler+0x88>
     a5a:	f64e 704c 	movw	r0, #61260	; 0xef4c
     a5e:	9904      	ldr	r1, [sp, #16]
     a60:	f2c0 0003 	movt	r0, #3
     a64:	47a8      	blx	r5
     a66:	f44f 5200 	mov.w	r2, #8192	; 0x2000
     a6a:	f2c4 0200 	movt	r2, #16384	; 0x4000
     a6e:	f8d8 1000 	ldr.w	r1, [r8]
     a72:	400a      	ands	r2, r1
     a74:	2a00      	cmp	r2, #0
     a76:	d08f      	beq.n	998 <HalHardFaultHandler+0x88>
     a78:	f64e 7068 	movw	r0, #61288	; 0xef68
     a7c:	4639      	mov	r1, r7
     a7e:	f2c0 0003 	movt	r0, #3
     a82:	47a8      	blx	r5
     a84:	f44f 5200 	mov.w	r2, #8192	; 0x2000
     a88:	f2c4 0200 	movt	r2, #16384	; 0x4000
     a8c:	f8d8 1000 	ldr.w	r1, [r8]
     a90:	400a      	ands	r2, r1
     a92:	2a00      	cmp	r2, #0
     a94:	d080      	beq.n	998 <HalHardFaultHandler+0x88>
     a96:	f64e 7084 	movw	r0, #61316	; 0xef84
     a9a:	4659      	mov	r1, fp
     a9c:	f2c0 0003 	movt	r0, #3
     aa0:	47a8      	blx	r5
     aa2:	f44f 5200 	mov.w	r2, #8192	; 0x2000
     aa6:	f2c4 0200 	movt	r2, #16384	; 0x4000
     aaa:	f8d8 3000 	ldr.w	r3, [r8]
     aae:	401a      	ands	r2, r3
     ab0:	2a00      	cmp	r2, #0
     ab2:	f43f af71 	beq.w	998 <HalHardFaultHandler+0x88>
     ab6:	f64e 70a4 	movw	r0, #61348	; 0xefa4
     aba:	9906      	ldr	r1, [sp, #24]
     abc:	f2c0 0003 	movt	r0, #3
     ac0:	47a0      	blx	r4
     ac2:	f44f 5300 	mov.w	r3, #8192	; 0x2000
     ac6:	f2c4 0300 	movt	r3, #16384	; 0x4000
     aca:	f247 54bd 	movw	r4, #30141	; 0x75bd
     ace:	6832      	ldr	r2, [r6, #0]
     ad0:	f2c1 0400 	movt	r4, #4096	; 0x1000
     ad4:	4013      	ands	r3, r2
     ad6:	2b00      	cmp	r3, #0
     ad8:	f43f af5e 	beq.w	998 <HalHardFaultHandler+0x88>
     adc:	f64e 70c4 	movw	r0, #61380	; 0xefc4
     ae0:	9907      	ldr	r1, [sp, #28]
     ae2:	f2c0 0003 	movt	r0, #3
     ae6:	47a0      	blx	r4
     ae8:	f44f 5300 	mov.w	r3, #8192	; 0x2000
     aec:	f2c4 0300 	movt	r3, #16384	; 0x4000
     af0:	f8d8 2000 	ldr.w	r2, [r8]
     af4:	4013      	ands	r3, r2
     af6:	2b00      	cmp	r3, #0
     af8:	f43f af4e 	beq.w	998 <HalHardFaultHandler+0x88>
     afc:	f64e 70e4 	movw	r0, #61412	; 0xefe4
     b00:	9908      	ldr	r1, [sp, #32]
     b02:	f2c0 0003 	movt	r0, #3
     b06:	47a0      	blx	r4
     b08:	f44f 5300 	mov.w	r3, #8192	; 0x2000
     b0c:	f2c4 0300 	movt	r3, #16384	; 0x4000
     b10:	f8d8 2000 	ldr.w	r2, [r8]
     b14:	4013      	ands	r3, r2
     b16:	2b00      	cmp	r3, #0
     b18:	f43f af3e 	beq.w	998 <HalHardFaultHandler+0x88>
     b1c:	f24f 0004 	movw	r0, #61444	; 0xf004
     b20:	9909      	ldr	r1, [sp, #36]	; 0x24
     b22:	f2c0 0003 	movt	r0, #3
     b26:	47a0      	blx	r4
     b28:	f44f 5300 	mov.w	r3, #8192	; 0x2000
     b2c:	f2c4 0300 	movt	r3, #16384	; 0x4000
     b30:	f8d8 2000 	ldr.w	r2, [r8]
     b34:	4013      	ands	r3, r2
     b36:	2b00      	cmp	r3, #0
     b38:	f43f af2e 	beq.w	998 <HalHardFaultHandler+0x88>
     b3c:	f3ef 8110 	mrs	r1, PRIMASK
     b40:	f24f 0024 	movw	r0, #61476	; 0xf024
     b44:	f2c0 0003 	movt	r0, #3
     b48:	47a0      	blx	r4
     b4a:	f44f 5300 	mov.w	r3, #8192	; 0x2000
     b4e:	f2c4 0300 	movt	r3, #16384	; 0x4000
     b52:	f8d8 2000 	ldr.w	r2, [r8]
     b56:	4013      	ands	r3, r2
     b58:	2b00      	cmp	r3, #0
     b5a:	f43f af1d 	beq.w	998 <HalHardFaultHandler+0x88>
     b5e:	f3ef 8112 	mrs	r1, BASEPRI_MAX
     b62:	f24f 0044 	movw	r0, #61508	; 0xf044
     b66:	f2c0 0003 	movt	r0, #3
     b6a:	47a0      	blx	r4
     b6c:	f44f 5300 	mov.w	r3, #8192	; 0x2000
     b70:	f2c4 0300 	movt	r3, #16384	; 0x4000
     b74:	f8d8 2000 	ldr.w	r2, [r8]
     b78:	4013      	ands	r3, r2
     b7a:	2b00      	cmp	r3, #0
     b7c:	f43f af0c 	beq.w	998 <HalHardFaultHandler+0x88>
     b80:	f64e 531f 	movw	r3, #60703	; 0xed1f
     b84:	f24f 0064 	movw	r0, #61540	; 0xf064
     b88:	f2ce 0300 	movt	r3, #57344	; 0xe000
     b8c:	f2c0 0003 	movt	r0, #3
     b90:	7819      	ldrb	r1, [r3, #0]
     b92:	47a0      	blx	r4
     b94:	f44f 5300 	mov.w	r3, #8192	; 0x2000
     b98:	f2c4 0300 	movt	r3, #16384	; 0x4000
     b9c:	f8d8 2000 	ldr.w	r2, [r8]
     ba0:	4013      	ands	r3, r2
     ba2:	2b00      	cmp	r3, #0
     ba4:	f43f aef8 	beq.w	998 <HalHardFaultHandler+0x88>
     ba8:	f64e 5322 	movw	r3, #60706	; 0xed22
     bac:	f24f 008c 	movw	r0, #61580	; 0xf08c
     bb0:	f2ce 0300 	movt	r3, #57344	; 0xe000
     bb4:	f2c0 0003 	movt	r0, #3
     bb8:	7819      	ldrb	r1, [r3, #0]
     bba:	47a0      	blx	r4
     bbc:	f44f 5300 	mov.w	r3, #8192	; 0x2000
     bc0:	f2c4 0300 	movt	r3, #16384	; 0x4000
     bc4:	f8d8 2000 	ldr.w	r2, [r8]
     bc8:	4013      	ands	r3, r2
     bca:	2b00      	cmp	r3, #0
     bcc:	f43f aee4 	beq.w	998 <HalHardFaultHandler+0x88>
     bd0:	f64e 5323 	movw	r3, #60707	; 0xed23
     bd4:	f24f 00b8 	movw	r0, #61624	; 0xf0b8
     bd8:	f2ce 0300 	movt	r3, #57344	; 0xe000
     bdc:	f2c0 0003 	movt	r0, #3
     be0:	7819      	ldrb	r1, [r3, #0]
     be2:	47a0      	blx	r4
     be4:	e6d8      	b.n	998 <HalHardFaultHandler+0x88>
     be6:	f64e 607c 	movw	r0, #61052	; 0xee7c
     bea:	f247 54bd 	movw	r4, #30141	; 0x75bd
     bee:	f2c0 0003 	movt	r0, #3
     bf2:	f2c1 0400 	movt	r4, #4096	; 0x1000
     bf6:	47a0      	blx	r4
     bf8:	f44f 5300 	mov.w	r3, #8192	; 0x2000
     bfc:	f2c4 0300 	movt	r3, #16384	; 0x4000
     c00:	6832      	ldr	r2, [r6, #0]
     c02:	4013      	ands	r3, r2
     c04:	e699      	b.n	93a <HalHardFaultHandler+0x2a>
     c06:	bf00      	nop

00000c08 <HalMemManageHandler>:
     c08:	f240 3214 	movw	r2, #788	; 0x314
     c0c:	f2c1 0200 	movt	r2, #4096	; 0x1000
     c10:	b508      	push	{r3, lr}
     c12:	f44f 5300 	mov.w	r3, #8192	; 0x2000
     c16:	f2c4 0300 	movt	r3, #16384	; 0x4000
     c1a:	6812      	ldr	r2, [r2, #0]
     c1c:	4013      	ands	r3, r2
     c1e:	b903      	cbnz	r3, c22 <HalMemManageHandler+0x1a>
     c20:	e7fe      	b.n	c20 <HalMemManageHandler+0x18>
     c22:	f24f 00e4 	movw	r0, #61668	; 0xf0e4
     c26:	f247 53bd 	movw	r3, #30141	; 0x75bd
     c2a:	f2c0 0003 	movt	r0, #3
     c2e:	f2c1 0300 	movt	r3, #4096	; 0x1000
     c32:	4798      	blx	r3
     c34:	e7f4      	b.n	c20 <HalMemManageHandler+0x18>
     c36:	bf00      	nop

00000c38 <HalBusFaultHandler>:
     c38:	f240 3214 	movw	r2, #788	; 0x314
     c3c:	f2c1 0200 	movt	r2, #4096	; 0x1000
     c40:	b508      	push	{r3, lr}
     c42:	f44f 5300 	mov.w	r3, #8192	; 0x2000
     c46:	f2c4 0300 	movt	r3, #16384	; 0x4000
     c4a:	6812      	ldr	r2, [r2, #0]
     c4c:	4013      	ands	r3, r2
     c4e:	b903      	cbnz	r3, c52 <HalBusFaultHandler+0x1a>
     c50:	e7fe      	b.n	c50 <HalBusFaultHandler+0x18>
     c52:	f24f 1010 	movw	r0, #61712	; 0xf110
     c56:	f247 53bd 	movw	r3, #30141	; 0x75bd
     c5a:	f2c0 0003 	movt	r0, #3
     c5e:	f2c1 0300 	movt	r3, #4096	; 0x1000
     c62:	4798      	blx	r3
     c64:	e7f4      	b.n	c50 <HalBusFaultHandler+0x18>
     c66:	bf00      	nop

00000c68 <HalUsageFaultHandler>:
     c68:	f240 3214 	movw	r2, #788	; 0x314
     c6c:	f2c1 0200 	movt	r2, #4096	; 0x1000
     c70:	b508      	push	{r3, lr}
     c72:	f44f 5300 	mov.w	r3, #8192	; 0x2000
     c76:	f2c4 0300 	movt	r3, #16384	; 0x4000
     c7a:	6812      	ldr	r2, [r2, #0]
     c7c:	4013      	ands	r3, r2
     c7e:	b903      	cbnz	r3, c82 <HalUsageFaultHandler+0x1a>
     c80:	e7fe      	b.n	c80 <HalUsageFaultHandler+0x18>
     c82:	f24f 1038 	movw	r0, #61752	; 0xf138
     c86:	f247 53bd 	movw	r3, #30141	; 0x75bd
     c8a:	f2c0 0003 	movt	r0, #3
     c8e:	f2c1 0300 	movt	r3, #4096	; 0x1000
     c92:	4798      	blx	r3
     c94:	e7f4      	b.n	c80 <HalUsageFaultHandler+0x18>
     c96:	bf00      	nop

00000c98 <GPIOCtrl.part.0>:
     c98:	f240 3334 	movw	r3, #820	; 0x334
     c9c:	f44f 7248 	mov.w	r2, #800	; 0x320
     ca0:	f2c1 0300 	movt	r3, #4096	; 0x1000
     ca4:	f2c4 0200 	movt	r2, #16384	; 0x4000
     ca8:	b470      	push	{r4, r5, r6}
     caa:	f833 6010 	ldrh.w	r6, [r3, r0, lsl #1]
     cae:	6814      	ldr	r4, [r2, #0]
     cb0:	2501      	movs	r5, #1
     cb2:	4085      	lsls	r5, r0
     cb4:	4331      	orrs	r1, r6
     cb6:	432c      	orrs	r4, r5
     cb8:	f823 1010 	strh.w	r1, [r3, r0, lsl #1]
     cbc:	6014      	str	r4, [r2, #0]
     cbe:	bc70      	pop	{r4, r5, r6}
     cc0:	4770      	bx	lr
     cc2:	bf00      	nop

00000cc4 <GPIOCtrl>:
     cc4:	b9ca      	cbnz	r2, cfa <GPIOCtrl+0x36>
     cc6:	f240 3334 	movw	r3, #820	; 0x334
     cca:	f2c1 0300 	movt	r3, #4096	; 0x1000
     cce:	b430      	push	{r4, r5}
     cd0:	460d      	mov	r5, r1
     cd2:	f833 1010 	ldrh.w	r1, [r3, r0, lsl #1]
     cd6:	ea21 0105 	bic.w	r1, r1, r5
     cda:	f823 1010 	strh.w	r1, [r3, r0, lsl #1]
     cde:	b951      	cbnz	r1, cf6 <GPIOCtrl+0x32>
     ce0:	f44f 7348 	mov.w	r3, #800	; 0x320
     ce4:	f2c4 0300 	movt	r3, #16384	; 0x4000
     ce8:	2101      	movs	r1, #1
     cea:	681a      	ldr	r2, [r3, #0]
     cec:	fa01 f400 	lsl.w	r4, r1, r0
     cf0:	ea22 0404 	bic.w	r4, r2, r4
     cf4:	601c      	str	r4, [r3, #0]
     cf6:	bc30      	pop	{r4, r5}
     cf8:	4770      	bx	lr
     cfa:	e7cd      	b.n	c98 <GPIOCtrl.part.0>

00000cfc <HalUart0PinCtrlRtl8195A>:
     cfc:	2801      	cmp	r0, #1
     cfe:	b510      	push	{r4, lr}
     d00:	4604      	mov	r4, r0
     d02:	d03b      	beq.n	d7c <HalUart0PinCtrlRtl8195A+0x80>
     d04:	d31c      	bcc.n	d40 <HalUart0PinCtrlRtl8195A+0x44>
     d06:	2802      	cmp	r0, #2
     d08:	d00e      	beq.n	d28 <HalUart0PinCtrlRtl8195A+0x2c>
     d0a:	b9b9      	cbnz	r1, d3c <HalUart0PinCtrlRtl8195A+0x40>
     d0c:	f44f 7320 	mov.w	r3, #640	; 0x280
     d10:	f2c4 0300 	movt	r3, #16384	; 0x4000
     d14:	681a      	ldr	r2, [r3, #0]
     d16:	2001      	movs	r0, #1
     d18:	f022 020e 	bic.w	r2, r2, #14
     d1c:	601a      	str	r2, [r3, #0]
     d1e:	681a      	ldr	r2, [r3, #0]
     d20:	f022 0201 	bic.w	r2, r2, #1
     d24:	601a      	str	r2, [r3, #0]
     d26:	bd10      	pop	{r4, pc}
     d28:	2900      	cmp	r1, #0
     d2a:	d03b      	beq.n	da4 <HalUart0PinCtrlRtl8195A+0xa8>
     d2c:	f240 3334 	movw	r3, #820	; 0x334
     d30:	f2c1 0300 	movt	r3, #4096	; 0x1000
     d34:	8818      	ldrh	r0, [r3, #0]
     d36:	f010 00e8 	ands.w	r0, r0, #232	; 0xe8
     d3a:	d03f      	beq.n	dbc <HalUart0PinCtrlRtl8195A+0xc0>
     d3c:	2000      	movs	r0, #0
     d3e:	bd10      	pop	{r4, pc}
     d40:	b351      	cbz	r1, d98 <HalUart0PinCtrlRtl8195A+0x9c>
     d42:	f240 3334 	movw	r3, #820	; 0x334
     d46:	f2c1 0300 	movt	r3, #4096	; 0x1000
     d4a:	889b      	ldrh	r3, [r3, #4]
     d4c:	071a      	lsls	r2, r3, #28
     d4e:	d1f5      	bne.n	d3c <HalUart0PinCtrlRtl8195A+0x40>
     d50:	460a      	mov	r2, r1
     d52:	2002      	movs	r0, #2
     d54:	210f      	movs	r1, #15
     d56:	f7ff ffb5 	bl	cc4 <GPIOCtrl>
     d5a:	f44f 7320 	mov.w	r3, #640	; 0x280
     d5e:	f2c4 0300 	movt	r3, #16384	; 0x4000
     d62:	681a      	ldr	r2, [r3, #0]
     d64:	f004 0407 	and.w	r4, r4, #7
     d68:	f022 020e 	bic.w	r2, r2, #14
     d6c:	ea42 0444 	orr.w	r4, r2, r4, lsl #1
     d70:	601c      	str	r4, [r3, #0]
     d72:	681a      	ldr	r2, [r3, #0]
     d74:	2001      	movs	r0, #1
     d76:	4302      	orrs	r2, r0
     d78:	601a      	str	r2, [r3, #0]
     d7a:	bd10      	pop	{r4, pc}
     d7c:	b1c1      	cbz	r1, db0 <HalUart0PinCtrlRtl8195A+0xb4>
     d7e:	f240 3334 	movw	r3, #820	; 0x334
     d82:	f2c1 0300 	movt	r3, #4096	; 0x1000
     d86:	891b      	ldrh	r3, [r3, #8]
     d88:	071b      	lsls	r3, r3, #28
     d8a:	d1d7      	bne.n	d3c <HalUart0PinCtrlRtl8195A+0x40>
     d8c:	460a      	mov	r2, r1
     d8e:	2004      	movs	r0, #4
     d90:	210f      	movs	r1, #15
     d92:	f7ff ff97 	bl	cc4 <GPIOCtrl>
     d96:	e7e0      	b.n	d5a <HalUart0PinCtrlRtl8195A+0x5e>
     d98:	460a      	mov	r2, r1
     d9a:	2002      	movs	r0, #2
     d9c:	210f      	movs	r1, #15
     d9e:	f7ff ff91 	bl	cc4 <GPIOCtrl>
     da2:	e7b3      	b.n	d0c <HalUart0PinCtrlRtl8195A+0x10>
     da4:	4608      	mov	r0, r1
     da6:	21e8      	movs	r1, #232	; 0xe8
     da8:	4602      	mov	r2, r0
     daa:	f7ff ff8b 	bl	cc4 <GPIOCtrl>
     dae:	e7ad      	b.n	d0c <HalUart0PinCtrlRtl8195A+0x10>
     db0:	460a      	mov	r2, r1
     db2:	2004      	movs	r0, #4
     db4:	210f      	movs	r1, #15
     db6:	f7ff ff85 	bl	cc4 <GPIOCtrl>
     dba:	e7a7      	b.n	d0c <HalUart0PinCtrlRtl8195A+0x10>
     dbc:	460a      	mov	r2, r1
     dbe:	21e8      	movs	r1, #232	; 0xe8
     dc0:	f7ff ff80 	bl	cc4 <GPIOCtrl>
     dc4:	e7c9      	b.n	d5a <HalUart0PinCtrlRtl8195A+0x5e>
     dc6:	bf00      	nop

00000dc8 <HalUart1PinCtrlRtl8195A>:
     dc8:	2801      	cmp	r0, #1
     dca:	b510      	push	{r4, lr}
     dcc:	4604      	mov	r4, r0
     dce:	d03c      	beq.n	e4a <HalUart1PinCtrlRtl8195A+0x82>
     dd0:	d31d      	bcc.n	e0e <HalUart1PinCtrlRtl8195A+0x46>
     dd2:	2802      	cmp	r0, #2
     dd4:	d00e      	beq.n	df4 <HalUart1PinCtrlRtl8195A+0x2c>
     dd6:	b9c1      	cbnz	r1, e0a <HalUart1PinCtrlRtl8195A+0x42>
     dd8:	f44f 7320 	mov.w	r3, #640	; 0x280
     ddc:	f2c4 0300 	movt	r3, #16384	; 0x4000
     de0:	681a      	ldr	r2, [r3, #0]
     de2:	2001      	movs	r0, #1
     de4:	f022 02e0 	bic.w	r2, r2, #224	; 0xe0
     de8:	601a      	str	r2, [r3, #0]
     dea:	681a      	ldr	r2, [r3, #0]
     dec:	f022 0210 	bic.w	r2, r2, #16
     df0:	601a      	str	r2, [r3, #0]
     df2:	bd10      	pop	{r4, pc}
     df4:	2900      	cmp	r1, #0
     df6:	d03e      	beq.n	e76 <HalUart1PinCtrlRtl8195A+0xae>
     df8:	f240 3334 	movw	r3, #820	; 0x334
     dfc:	f2c1 0300 	movt	r3, #4096	; 0x1000
     e00:	885b      	ldrh	r3, [r3, #2]
     e02:	f003 03f0 	and.w	r3, r3, #240	; 0xf0
     e06:	2b00      	cmp	r3, #0
     e08:	d041      	beq.n	e8e <HalUart1PinCtrlRtl8195A+0xc6>
     e0a:	2000      	movs	r0, #0
     e0c:	bd10      	pop	{r4, pc}
     e0e:	b361      	cbz	r1, e6a <HalUart1PinCtrlRtl8195A+0xa2>
     e10:	f240 3334 	movw	r3, #820	; 0x334
     e14:	f2c1 0300 	movt	r3, #4096	; 0x1000
     e18:	88db      	ldrh	r3, [r3, #6]
     e1a:	071b      	lsls	r3, r3, #28
     e1c:	d1f5      	bne.n	e0a <HalUart1PinCtrlRtl8195A+0x42>
     e1e:	460a      	mov	r2, r1
     e20:	2003      	movs	r0, #3
     e22:	210f      	movs	r1, #15
     e24:	f7ff ff4e 	bl	cc4 <GPIOCtrl>
     e28:	f44f 7320 	mov.w	r3, #640	; 0x280
     e2c:	f2c4 0300 	movt	r3, #16384	; 0x4000
     e30:	681a      	ldr	r2, [r3, #0]
     e32:	0164      	lsls	r4, r4, #5
     e34:	f022 02e0 	bic.w	r2, r2, #224	; 0xe0
     e38:	b2e4      	uxtb	r4, r4
     e3a:	4314      	orrs	r4, r2
     e3c:	601c      	str	r4, [r3, #0]
     e3e:	681a      	ldr	r2, [r3, #0]
     e40:	2001      	movs	r0, #1
     e42:	f042 0210 	orr.w	r2, r2, #16
     e46:	601a      	str	r2, [r3, #0]
     e48:	bd10      	pop	{r4, pc}
     e4a:	b1d1      	cbz	r1, e82 <HalUart1PinCtrlRtl8195A+0xba>
     e4c:	f240 3334 	movw	r3, #820	; 0x334
     e50:	f2c1 0300 	movt	r3, #4096	; 0x1000
     e54:	891b      	ldrh	r3, [r3, #8]
     e56:	f003 03f0 	and.w	r3, r3, #240	; 0xf0
     e5a:	2b00      	cmp	r3, #0
     e5c:	d1d5      	bne.n	e0a <HalUart1PinCtrlRtl8195A+0x42>
     e5e:	460a      	mov	r2, r1
     e60:	2004      	movs	r0, #4
     e62:	21f0      	movs	r1, #240	; 0xf0
     e64:	f7ff ff2e 	bl	cc4 <GPIOCtrl>
     e68:	e7de      	b.n	e28 <HalUart1PinCtrlRtl8195A+0x60>
     e6a:	460a      	mov	r2, r1
     e6c:	2003      	movs	r0, #3
     e6e:	210f      	movs	r1, #15
     e70:	f7ff ff28 	bl	cc4 <GPIOCtrl>
     e74:	e7b0      	b.n	dd8 <HalUart1PinCtrlRtl8195A+0x10>
     e76:	460a      	mov	r2, r1
     e78:	2001      	movs	r0, #1
     e7a:	21f0      	movs	r1, #240	; 0xf0
     e7c:	f7ff ff22 	bl	cc4 <GPIOCtrl>
     e80:	e7aa      	b.n	dd8 <HalUart1PinCtrlRtl8195A+0x10>
     e82:	460a      	mov	r2, r1
     e84:	2004      	movs	r0, #4
     e86:	21f0      	movs	r1, #240	; 0xf0
     e88:	f7ff ff1c 	bl	cc4 <GPIOCtrl>
     e8c:	e7a4      	b.n	dd8 <HalUart1PinCtrlRtl8195A+0x10>
     e8e:	460a      	mov	r2, r1
     e90:	2001      	movs	r0, #1
     e92:	21f0      	movs	r1, #240	; 0xf0
     e94:	f7ff ff16 	bl	cc4 <GPIOCtrl>
     e98:	e7c6      	b.n	e28 <HalUart1PinCtrlRtl8195A+0x60>
     e9a:	bf00      	nop

00000e9c <HalUart2PinCtrlRtl8195A>:
     e9c:	2801      	cmp	r0, #1
     e9e:	b510      	push	{r4, lr}
     ea0:	4604      	mov	r4, r0
     ea2:	d03d      	beq.n	f20 <HalUart2PinCtrlRtl8195A+0x84>
     ea4:	d31d      	bcc.n	ee2 <HalUart2PinCtrlRtl8195A+0x46>
     ea6:	2802      	cmp	r0, #2
     ea8:	d00e      	beq.n	ec8 <HalUart2PinCtrlRtl8195A+0x2c>
     eaa:	b9c1      	cbnz	r1, ede <HalUart2PinCtrlRtl8195A+0x42>
     eac:	f44f 7320 	mov.w	r3, #640	; 0x280
     eb0:	f2c4 0300 	movt	r3, #16384	; 0x4000
     eb4:	681a      	ldr	r2, [r3, #0]
     eb6:	2001      	movs	r0, #1
     eb8:	f422 6260 	bic.w	r2, r2, #3584	; 0xe00
     ebc:	601a      	str	r2, [r3, #0]
     ebe:	681a      	ldr	r2, [r3, #0]
     ec0:	f422 7280 	bic.w	r2, r2, #256	; 0x100
     ec4:	601a      	str	r2, [r3, #0]
     ec6:	bd10      	pop	{r4, pc}
     ec8:	2900      	cmp	r1, #0
     eca:	d040      	beq.n	f4e <HalUart2PinCtrlRtl8195A+0xb2>
     ecc:	f240 3334 	movw	r3, #820	; 0x334
     ed0:	f2c1 0300 	movt	r3, #4096	; 0x1000
     ed4:	88db      	ldrh	r3, [r3, #6]
     ed6:	f003 03f0 	and.w	r3, r3, #240	; 0xf0
     eda:	2b00      	cmp	r3, #0
     edc:	d044      	beq.n	f68 <HalUart2PinCtrlRtl8195A+0xcc>
     ede:	2000      	movs	r0, #0
     ee0:	bd10      	pop	{r4, pc}
     ee2:	b371      	cbz	r1, f42 <HalUart2PinCtrlRtl8195A+0xa6>
     ee4:	f240 3334 	movw	r3, #820	; 0x334
     ee8:	f2c1 0300 	movt	r3, #4096	; 0x1000
     eec:	8818      	ldrh	r0, [r3, #0]
     eee:	f010 0017 	ands.w	r0, r0, #23
     ef2:	d1f4      	bne.n	ede <HalUart2PinCtrlRtl8195A+0x42>
     ef4:	460a      	mov	r2, r1
     ef6:	2117      	movs	r1, #23
     ef8:	f7ff fee4 	bl	cc4 <GPIOCtrl>
     efc:	f44f 7320 	mov.w	r3, #640	; 0x280
     f00:	f2c4 0300 	movt	r3, #16384	; 0x4000
     f04:	681a      	ldr	r2, [r3, #0]
     f06:	f004 0407 	and.w	r4, r4, #7
     f0a:	f422 6260 	bic.w	r2, r2, #3584	; 0xe00
     f0e:	ea42 2444 	orr.w	r4, r2, r4, lsl #9
     f12:	601c      	str	r4, [r3, #0]
     f14:	681a      	ldr	r2, [r3, #0]
     f16:	2001      	movs	r0, #1
     f18:	f442 7280 	orr.w	r2, r2, #256	; 0x100
     f1c:	601a      	str	r2, [r3, #0]
     f1e:	bd10      	pop	{r4, pc}
     f20:	b1d9      	cbz	r1, f5a <HalUart2PinCtrlRtl8195A+0xbe>
     f22:	f240 3334 	movw	r3, #820	; 0x334
     f26:	f2c1 0300 	movt	r3, #4096	; 0x1000
     f2a:	889b      	ldrh	r3, [r3, #4]
     f2c:	f403 7370 	and.w	r3, r3, #960	; 0x3c0
     f30:	2b00      	cmp	r3, #0
     f32:	d1d4      	bne.n	ede <HalUart2PinCtrlRtl8195A+0x42>
     f34:	460a      	mov	r2, r1
     f36:	2002      	movs	r0, #2
     f38:	f44f 7170 	mov.w	r1, #960	; 0x3c0
     f3c:	f7ff fec2 	bl	cc4 <GPIOCtrl>
     f40:	e7dc      	b.n	efc <HalUart2PinCtrlRtl8195A+0x60>
     f42:	4608      	mov	r0, r1
     f44:	2117      	movs	r1, #23
     f46:	4602      	mov	r2, r0
     f48:	f7ff febc 	bl	cc4 <GPIOCtrl>
     f4c:	e7ae      	b.n	eac <HalUart2PinCtrlRtl8195A+0x10>
     f4e:	460a      	mov	r2, r1
     f50:	2003      	movs	r0, #3
     f52:	21f0      	movs	r1, #240	; 0xf0
     f54:	f7ff feb6 	bl	cc4 <GPIOCtrl>
     f58:	e7a8      	b.n	eac <HalUart2PinCtrlRtl8195A+0x10>
     f5a:	460a      	mov	r2, r1
     f5c:	2002      	movs	r0, #2
     f5e:	f44f 7170 	mov.w	r1, #960	; 0x3c0
     f62:	f7ff feaf 	bl	cc4 <GPIOCtrl>
     f66:	e7a1      	b.n	eac <HalUart2PinCtrlRtl8195A+0x10>
     f68:	460a      	mov	r2, r1
     f6a:	2003      	movs	r0, #3
     f6c:	21f0      	movs	r1, #240	; 0xf0
     f6e:	f7ff fea9 	bl	cc4 <GPIOCtrl>
     f72:	e7c3      	b.n	efc <HalUart2PinCtrlRtl8195A+0x60>

00000f74 <HalSPI0PinCtrlRtl8195A>:
     f74:	b510      	push	{r4, lr}
     f76:	4604      	mov	r4, r0
     f78:	b1e0      	cbz	r0, fb4 <HalSPI0PinCtrlRtl8195A+0x40>
     f7a:	2801      	cmp	r0, #1
     f7c:	d10a      	bne.n	f94 <HalSPI0PinCtrlRtl8195A+0x20>
     f7e:	2900      	cmp	r1, #0
     f80:	d042      	beq.n	1008 <HalSPI0PinCtrlRtl8195A+0x94>
     f82:	f240 3334 	movw	r3, #820	; 0x334
     f86:	f2c1 0300 	movt	r3, #4096	; 0x1000
     f8a:	889b      	ldrh	r3, [r3, #4]
     f8c:	071b      	lsls	r3, r3, #28
     f8e:	d02f      	beq.n	ff0 <HalSPI0PinCtrlRtl8195A+0x7c>
     f90:	2000      	movs	r0, #0
     f92:	bd10      	pop	{r4, pc}
     f94:	2900      	cmp	r1, #0
     f96:	d1fb      	bne.n	f90 <HalSPI0PinCtrlRtl8195A+0x1c>
     f98:	f44f 7321 	mov.w	r3, #644	; 0x284
     f9c:	f2c4 0300 	movt	r3, #16384	; 0x4000
     fa0:	681a      	ldr	r2, [r3, #0]
     fa2:	2001      	movs	r0, #1
     fa4:	f022 020e 	bic.w	r2, r2, #14
     fa8:	601a      	str	r2, [r3, #0]
     faa:	681a      	ldr	r2, [r3, #0]
     fac:	f022 0201 	bic.w	r2, r2, #1
     fb0:	601a      	str	r2, [r3, #0]
     fb2:	bd10      	pop	{r4, pc}
     fb4:	b311      	cbz	r1, ffc <HalSPI0PinCtrlRtl8195A+0x88>
     fb6:	f240 3334 	movw	r3, #820	; 0x334
     fba:	f2c1 0300 	movt	r3, #4096	; 0x1000
     fbe:	891b      	ldrh	r3, [r3, #8]
     fc0:	071a      	lsls	r2, r3, #28
     fc2:	d1e5      	bne.n	f90 <HalSPI0PinCtrlRtl8195A+0x1c>
     fc4:	460a      	mov	r2, r1
     fc6:	2004      	movs	r0, #4
     fc8:	210f      	movs	r1, #15
     fca:	f7ff fe7b 	bl	cc4 <GPIOCtrl>
     fce:	f44f 7321 	mov.w	r3, #644	; 0x284
     fd2:	f2c4 0300 	movt	r3, #16384	; 0x4000
     fd6:	681a      	ldr	r2, [r3, #0]
     fd8:	f004 0407 	and.w	r4, r4, #7
     fdc:	f022 020e 	bic.w	r2, r2, #14
     fe0:	ea42 0444 	orr.w	r4, r2, r4, lsl #1
     fe4:	601c      	str	r4, [r3, #0]
     fe6:	681a      	ldr	r2, [r3, #0]
     fe8:	2001      	movs	r0, #1
     fea:	4302      	orrs	r2, r0
     fec:	601a      	str	r2, [r3, #0]
     fee:	bd10      	pop	{r4, pc}
     ff0:	460a      	mov	r2, r1
     ff2:	2002      	movs	r0, #2
     ff4:	210f      	movs	r1, #15
     ff6:	f7ff fe65 	bl	cc4 <GPIOCtrl>
     ffa:	e7e8      	b.n	fce <HalSPI0PinCtrlRtl8195A+0x5a>
     ffc:	460a      	mov	r2, r1
     ffe:	2004      	movs	r0, #4
    1000:	210f      	movs	r1, #15
    1002:	f7ff fe5f 	bl	cc4 <GPIOCtrl>
    1006:	e7c7      	b.n	f98 <HalSPI0PinCtrlRtl8195A+0x24>
    1008:	460a      	mov	r2, r1
    100a:	2002      	movs	r0, #2
    100c:	210f      	movs	r1, #15
    100e:	f7ff fe59 	bl	cc4 <GPIOCtrl>
    1012:	e7c1      	b.n	f98 <HalSPI0PinCtrlRtl8195A+0x24>

00001014 <HalSPI1PinCtrlRtl8195A>:
    1014:	2801      	cmp	r0, #1
    1016:	b510      	push	{r4, lr}
    1018:	4604      	mov	r4, r0
    101a:	d03c      	beq.n	1096 <HalSPI1PinCtrlRtl8195A+0x82>
    101c:	d31d      	bcc.n	105a <HalSPI1PinCtrlRtl8195A+0x46>
    101e:	2802      	cmp	r0, #2
    1020:	d00e      	beq.n	1040 <HalSPI1PinCtrlRtl8195A+0x2c>
    1022:	b9c1      	cbnz	r1, 1056 <HalSPI1PinCtrlRtl8195A+0x42>
    1024:	f44f 7321 	mov.w	r3, #644	; 0x284
    1028:	f2c4 0300 	movt	r3, #16384	; 0x4000
    102c:	681a      	ldr	r2, [r3, #0]
    102e:	2001      	movs	r0, #1
    1030:	f022 02e0 	bic.w	r2, r2, #224	; 0xe0
    1034:	601a      	str	r2, [r3, #0]
    1036:	681a      	ldr	r2, [r3, #0]
    1038:	f022 0210 	bic.w	r2, r2, #16
    103c:	601a      	str	r2, [r3, #0]
    103e:	bd10      	pop	{r4, pc}
    1040:	2900      	cmp	r1, #0
    1042:	d03d      	beq.n	10c0 <HalSPI1PinCtrlRtl8195A+0xac>
    1044:	f240 3334 	movw	r3, #820	; 0x334
    1048:	f2c1 0300 	movt	r3, #4096	; 0x1000
    104c:	88db      	ldrh	r3, [r3, #6]
    104e:	f003 03f0 	and.w	r3, r3, #240	; 0xf0
    1052:	2b00      	cmp	r3, #0
    1054:	d03f      	beq.n	10d6 <HalSPI1PinCtrlRtl8195A+0xc2>
    1056:	2000      	movs	r0, #0
    1058:	bd10      	pop	{r4, pc}
    105a:	b359      	cbz	r1, 10b4 <HalSPI1PinCtrlRtl8195A+0xa0>
    105c:	f240 3334 	movw	r3, #820	; 0x334
    1060:	f2c1 0300 	movt	r3, #4096	; 0x1000
    1064:	8818      	ldrh	r0, [r3, #0]
    1066:	f010 0017 	ands.w	r0, r0, #23
    106a:	d1f4      	bne.n	1056 <HalSPI1PinCtrlRtl8195A+0x42>
    106c:	460a      	mov	r2, r1
    106e:	2117      	movs	r1, #23
    1070:	f7ff fe28 	bl	cc4 <GPIOCtrl>
    1074:	f44f 7321 	mov.w	r3, #644	; 0x284
    1078:	f2c4 0300 	movt	r3, #16384	; 0x4000
    107c:	681a      	ldr	r2, [r3, #0]
    107e:	0164      	lsls	r4, r4, #5
    1080:	f022 02e0 	bic.w	r2, r2, #224	; 0xe0
    1084:	b2e4      	uxtb	r4, r4
    1086:	4314      	orrs	r4, r2
    1088:	601c      	str	r4, [r3, #0]
    108a:	681a      	ldr	r2, [r3, #0]
    108c:	2001      	movs	r0, #1
    108e:	f042 0210 	orr.w	r2, r2, #16
    1092:	601a      	str	r2, [r3, #0]
    1094:	bd10      	pop	{r4, pc}
    1096:	b1c9      	cbz	r1, 10cc <HalSPI1PinCtrlRtl8195A+0xb8>
    1098:	f240 3334 	movw	r3, #820	; 0x334
    109c:	f2c1 0300 	movt	r3, #4096	; 0x1000
    10a0:	885b      	ldrh	r3, [r3, #2]
    10a2:	f003 03f0 	and.w	r3, r3, #240	; 0xf0
    10a6:	2b00      	cmp	r3, #0
    10a8:	d1d5      	bne.n	1056 <HalSPI1PinCtrlRtl8195A+0x42>
    10aa:	460a      	mov	r2, r1
    10ac:	21f0      	movs	r1, #240	; 0xf0
    10ae:	f7ff fe09 	bl	cc4 <GPIOCtrl>
    10b2:	e7df      	b.n	1074 <HalSPI1PinCtrlRtl8195A+0x60>
    10b4:	4608      	mov	r0, r1
    10b6:	2117      	movs	r1, #23
    10b8:	4602      	mov	r2, r0
    10ba:	f7ff fe03 	bl	cc4 <GPIOCtrl>
    10be:	e7b1      	b.n	1024 <HalSPI1PinCtrlRtl8195A+0x10>
    10c0:	460a      	mov	r2, r1
    10c2:	2003      	movs	r0, #3
    10c4:	21f0      	movs	r1, #240	; 0xf0
    10c6:	f7ff fdfd 	bl	cc4 <GPIOCtrl>
    10ca:	e7ab      	b.n	1024 <HalSPI1PinCtrlRtl8195A+0x10>
    10cc:	460a      	mov	r2, r1
    10ce:	21f0      	movs	r1, #240	; 0xf0
    10d0:	f7ff fdf8 	bl	cc4 <GPIOCtrl>
    10d4:	e7a6      	b.n	1024 <HalSPI1PinCtrlRtl8195A+0x10>
    10d6:	460a      	mov	r2, r1
    10d8:	2003      	movs	r0, #3
    10da:	21f0      	movs	r1, #240	; 0xf0
    10dc:	f7ff fdf2 	bl	cc4 <GPIOCtrl>
    10e0:	e7c8      	b.n	1074 <HalSPI1PinCtrlRtl8195A+0x60>
    10e2:	bf00      	nop

000010e4 <HalSPI2PinCtrlRtl8195A>:
    10e4:	2801      	cmp	r0, #1
    10e6:	b510      	push	{r4, lr}
    10e8:	4604      	mov	r4, r0
    10ea:	d03b      	beq.n	1164 <HalSPI2PinCtrlRtl8195A+0x80>
    10ec:	d31b      	bcc.n	1126 <HalSPI2PinCtrlRtl8195A+0x42>
    10ee:	2802      	cmp	r0, #2
    10f0:	d00e      	beq.n	1110 <HalSPI2PinCtrlRtl8195A+0x2c>
    10f2:	b9b1      	cbnz	r1, 1122 <HalSPI2PinCtrlRtl8195A+0x3e>
    10f4:	f44f 7321 	mov.w	r3, #644	; 0x284
    10f8:	f2c4 0300 	movt	r3, #16384	; 0x4000
    10fc:	681a      	ldr	r2, [r3, #0]
    10fe:	2001      	movs	r0, #1
    1100:	f422 6260 	bic.w	r2, r2, #3584	; 0xe00
    1104:	601a      	str	r2, [r3, #0]
    1106:	681a      	ldr	r2, [r3, #0]
    1108:	f422 7280 	bic.w	r2, r2, #256	; 0x100
    110c:	601a      	str	r2, [r3, #0]
    110e:	bd10      	pop	{r4, pc}
    1110:	2900      	cmp	r1, #0
    1112:	d03d      	beq.n	1190 <HalSPI2PinCtrlRtl8195A+0xac>
    1114:	f240 3334 	movw	r3, #820	; 0x334
    1118:	f2c1 0300 	movt	r3, #4096	; 0x1000
    111c:	88db      	ldrh	r3, [r3, #6]
    111e:	071b      	lsls	r3, r3, #28
    1120:	d042      	beq.n	11a8 <HalSPI2PinCtrlRtl8195A+0xc4>
    1122:	2000      	movs	r0, #0
    1124:	bd10      	pop	{r4, pc}
    1126:	b369      	cbz	r1, 1184 <HalSPI2PinCtrlRtl8195A+0xa0>
    1128:	f240 3334 	movw	r3, #820	; 0x334
    112c:	f2c1 0300 	movt	r3, #4096	; 0x1000
    1130:	899b      	ldrh	r3, [r3, #12]
    1132:	071a      	lsls	r2, r3, #28
    1134:	d1f5      	bne.n	1122 <HalSPI2PinCtrlRtl8195A+0x3e>
    1136:	460a      	mov	r2, r1
    1138:	2006      	movs	r0, #6
    113a:	210f      	movs	r1, #15
    113c:	f7ff fdc2 	bl	cc4 <GPIOCtrl>
    1140:	f44f 7321 	mov.w	r3, #644	; 0x284
    1144:	f2c4 0300 	movt	r3, #16384	; 0x4000
    1148:	681a      	ldr	r2, [r3, #0]
    114a:	f004 0407 	and.w	r4, r4, #7
    114e:	f422 6260 	bic.w	r2, r2, #3584	; 0xe00
    1152:	ea42 2444 	orr.w	r4, r2, r4, lsl #9
    1156:	601c      	str	r4, [r3, #0]
    1158:	681a      	ldr	r2, [r3, #0]
    115a:	2001      	movs	r0, #1
    115c:	f442 7280 	orr.w	r2, r2, #256	; 0x100
    1160:	601a      	str	r2, [r3, #0]
    1162:	bd10      	pop	{r4, pc}
    1164:	b1d1      	cbz	r1, 119c <HalSPI2PinCtrlRtl8195A+0xb8>
    1166:	f240 3334 	movw	r3, #820	; 0x334
    116a:	f2c1 0300 	movt	r3, #4096	; 0x1000
    116e:	891b      	ldrh	r3, [r3, #8]
    1170:	f003 03f0 	and.w	r3, r3, #240	; 0xf0
    1174:	2b00      	cmp	r3, #0
    1176:	d1d4      	bne.n	1122 <HalSPI2PinCtrlRtl8195A+0x3e>
    1178:	460a      	mov	r2, r1
    117a:	2004      	movs	r0, #4
    117c:	21f0      	movs	r1, #240	; 0xf0
    117e:	f7ff fda1 	bl	cc4 <GPIOCtrl>
    1182:	e7dd      	b.n	1140 <HalSPI2PinCtrlRtl8195A+0x5c>
    1184:	460a      	mov	r2, r1
    1186:	2006      	movs	r0, #6
    1188:	210f      	movs	r1, #15
    118a:	f7ff fd9b 	bl	cc4 <GPIOCtrl>
    118e:	e7b1      	b.n	10f4 <HalSPI2PinCtrlRtl8195A+0x10>
    1190:	460a      	mov	r2, r1
    1192:	2003      	movs	r0, #3
    1194:	210f      	movs	r1, #15
    1196:	f7ff fd95 	bl	cc4 <GPIOCtrl>
    119a:	e7ab      	b.n	10f4 <HalSPI2PinCtrlRtl8195A+0x10>
    119c:	460a      	mov	r2, r1
    119e:	2004      	movs	r0, #4
    11a0:	21f0      	movs	r1, #240	; 0xf0
    11a2:	f7ff fd8f 	bl	cc4 <GPIOCtrl>
    11a6:	e7a5      	b.n	10f4 <HalSPI2PinCtrlRtl8195A+0x10>
    11a8:	460a      	mov	r2, r1
    11aa:	2003      	movs	r0, #3
    11ac:	210f      	movs	r1, #15
    11ae:	f7ff fd89 	bl	cc4 <GPIOCtrl>
    11b2:	e7c5      	b.n	1140 <HalSPI2PinCtrlRtl8195A+0x5c>

000011b4 <HalSPI0MCSPinCtrlRtl8195A>:
    11b4:	b510      	push	{r4, lr}
    11b6:	4604      	mov	r4, r0
    11b8:	b310      	cbz	r0, 1200 <HalSPI0MCSPinCtrlRtl8195A+0x4c>
    11ba:	2801      	cmp	r0, #1
    11bc:	d10c      	bne.n	11d8 <HalSPI0MCSPinCtrlRtl8195A+0x24>
    11be:	2900      	cmp	r1, #0
    11c0:	d051      	beq.n	1266 <HalSPI0MCSPinCtrlRtl8195A+0xb2>
    11c2:	f240 3334 	movw	r3, #820	; 0x334
    11c6:	f2c1 0300 	movt	r3, #4096	; 0x1000
    11ca:	889b      	ldrh	r3, [r3, #4]
    11cc:	f3c3 0309 	ubfx	r3, r3, #0, #10
    11d0:	2b00      	cmp	r3, #0
    11d2:	d03a      	beq.n	124a <HalSPI0MCSPinCtrlRtl8195A+0x96>
    11d4:	2000      	movs	r0, #0
    11d6:	bd10      	pop	{r4, pc}
    11d8:	2900      	cmp	r1, #0
    11da:	d1fb      	bne.n	11d4 <HalSPI0MCSPinCtrlRtl8195A+0x20>
    11dc:	f44f 7321 	mov.w	r3, #644	; 0x284
    11e0:	f2c4 0300 	movt	r3, #16384	; 0x4000
    11e4:	681a      	ldr	r2, [r3, #0]
    11e6:	2001      	movs	r0, #1
    11e8:	f022 020e 	bic.w	r2, r2, #14
    11ec:	601a      	str	r2, [r3, #0]
    11ee:	681a      	ldr	r2, [r3, #0]
    11f0:	f022 0201 	bic.w	r2, r2, #1
    11f4:	601a      	str	r2, [r3, #0]
    11f6:	681a      	ldr	r2, [r3, #0]
    11f8:	f022 5280 	bic.w	r2, r2, #268435456	; 0x10000000
    11fc:	601a      	str	r2, [r3, #0]
    11fe:	bd10      	pop	{r4, pc}
    1200:	b351      	cbz	r1, 1258 <HalSPI0MCSPinCtrlRtl8195A+0xa4>
    1202:	f240 3334 	movw	r3, #820	; 0x334
    1206:	f2c1 0300 	movt	r3, #4096	; 0x1000
    120a:	891b      	ldrh	r3, [r3, #8]
    120c:	f3c3 030a 	ubfx	r3, r3, #0, #11
    1210:	2b00      	cmp	r3, #0
    1212:	d1df      	bne.n	11d4 <HalSPI0MCSPinCtrlRtl8195A+0x20>
    1214:	460a      	mov	r2, r1
    1216:	2004      	movs	r0, #4
    1218:	f240 71ff 	movw	r1, #2047	; 0x7ff
    121c:	f7ff fd52 	bl	cc4 <GPIOCtrl>
    1220:	f44f 7321 	mov.w	r3, #644	; 0x284
    1224:	f2c4 0300 	movt	r3, #16384	; 0x4000
    1228:	681a      	ldr	r2, [r3, #0]
    122a:	f004 0407 	and.w	r4, r4, #7
    122e:	f022 020e 	bic.w	r2, r2, #14
    1232:	ea42 0444 	orr.w	r4, r2, r4, lsl #1
    1236:	601c      	str	r4, [r3, #0]
    1238:	681a      	ldr	r2, [r3, #0]
    123a:	2001      	movs	r0, #1
    123c:	4302      	orrs	r2, r0
    123e:	601a      	str	r2, [r3, #0]
    1240:	681a      	ldr	r2, [r3, #0]
    1242:	f042 5280 	orr.w	r2, r2, #268435456	; 0x10000000
    1246:	601a      	str	r2, [r3, #0]
    1248:	bd10      	pop	{r4, pc}
    124a:	460a      	mov	r2, r1
    124c:	2002      	movs	r0, #2
    124e:	f240 31ff 	movw	r1, #1023	; 0x3ff
    1252:	f7ff fd37 	bl	cc4 <GPIOCtrl>
    1256:	e7e3      	b.n	1220 <HalSPI0MCSPinCtrlRtl8195A+0x6c>
    1258:	460a      	mov	r2, r1
    125a:	2004      	movs	r0, #4
    125c:	f240 71ff 	movw	r1, #2047	; 0x7ff
    1260:	f7ff fd30 	bl	cc4 <GPIOCtrl>
    1264:	e7ba      	b.n	11dc <HalSPI0MCSPinCtrlRtl8195A+0x28>
    1266:	460a      	mov	r2, r1
    1268:	2002      	movs	r0, #2
    126a:	f240 31ff 	movw	r1, #1023	; 0x3ff
    126e:	f7ff fd29 	bl	cc4 <GPIOCtrl>
    1272:	e7b3      	b.n	11dc <HalSPI0MCSPinCtrlRtl8195A+0x28>

00001274 <HalI2C0PinCtrlRtl8195A>:
    1274:	b510      	push	{r4, lr}
    1276:	4604      	mov	r4, r0
    1278:	2803      	cmp	r0, #3
    127a:	d851      	bhi.n	1320 <HalI2C0PinCtrlRtl8195A+0xac>
    127c:	e8df f000 	tbb	[pc, r0]
    1280:	020f2140 	.word	0x020f2140
    1284:	2900      	cmp	r1, #0
    1286:	d068      	beq.n	135a <HalI2C0PinCtrlRtl8195A+0xe6>
    1288:	f240 3334 	movw	r3, #820	; 0x334
    128c:	f2c1 0300 	movt	r3, #4096	; 0x1000
    1290:	891b      	ldrh	r3, [r3, #8]
    1292:	f003 03c0 	and.w	r3, r3, #192	; 0xc0
    1296:	2b00      	cmp	r3, #0
    1298:	d06b      	beq.n	1372 <HalI2C0PinCtrlRtl8195A+0xfe>
    129a:	2000      	movs	r0, #0
    129c:	bd10      	pop	{r4, pc}
    129e:	2900      	cmp	r1, #0
    12a0:	d054      	beq.n	134c <HalI2C0PinCtrlRtl8195A+0xd8>
    12a2:	f240 3334 	movw	r3, #820	; 0x334
    12a6:	f2c1 0300 	movt	r3, #4096	; 0x1000
    12aa:	889b      	ldrh	r3, [r3, #4]
    12ac:	f403 7340 	and.w	r3, r3, #768	; 0x300
    12b0:	2b00      	cmp	r3, #0
    12b2:	d1f2      	bne.n	129a <HalI2C0PinCtrlRtl8195A+0x26>
    12b4:	460a      	mov	r2, r1
    12b6:	2002      	movs	r0, #2
    12b8:	f44f 7140 	mov.w	r1, #768	; 0x300
    12bc:	f7ff fd02 	bl	cc4 <GPIOCtrl>
    12c0:	e00d      	b.n	12de <HalI2C0PinCtrlRtl8195A+0x6a>
    12c2:	2900      	cmp	r1, #0
    12c4:	d03c      	beq.n	1340 <HalI2C0PinCtrlRtl8195A+0xcc>
    12c6:	f240 3334 	movw	r3, #820	; 0x334
    12ca:	f2c1 0300 	movt	r3, #4096	; 0x1000
    12ce:	89db      	ldrh	r3, [r3, #14]
    12d0:	079b      	lsls	r3, r3, #30
    12d2:	d1e2      	bne.n	129a <HalI2C0PinCtrlRtl8195A+0x26>
    12d4:	460a      	mov	r2, r1
    12d6:	2007      	movs	r0, #7
    12d8:	2103      	movs	r1, #3
    12da:	f7ff fcf3 	bl	cc4 <GPIOCtrl>
    12de:	f44f 7322 	mov.w	r3, #648	; 0x288
    12e2:	f2c4 0300 	movt	r3, #16384	; 0x4000
    12e6:	681a      	ldr	r2, [r3, #0]
    12e8:	f004 0407 	and.w	r4, r4, #7
    12ec:	f022 020e 	bic.w	r2, r2, #14
    12f0:	ea42 0444 	orr.w	r4, r2, r4, lsl #1
    12f4:	601c      	str	r4, [r3, #0]
    12f6:	681a      	ldr	r2, [r3, #0]
    12f8:	2001      	movs	r0, #1
    12fa:	4302      	orrs	r2, r0
    12fc:	601a      	str	r2, [r3, #0]
    12fe:	bd10      	pop	{r4, pc}
    1300:	b389      	cbz	r1, 1366 <HalI2C0PinCtrlRtl8195A+0xf2>
    1302:	f240 3334 	movw	r3, #820	; 0x334
    1306:	f2c1 0300 	movt	r3, #4096	; 0x1000
    130a:	88db      	ldrh	r3, [r3, #6]
    130c:	f003 0330 	and.w	r3, r3, #48	; 0x30
    1310:	2b00      	cmp	r3, #0
    1312:	d1c2      	bne.n	129a <HalI2C0PinCtrlRtl8195A+0x26>
    1314:	460a      	mov	r2, r1
    1316:	2003      	movs	r0, #3
    1318:	2130      	movs	r1, #48	; 0x30
    131a:	f7ff fcd3 	bl	cc4 <GPIOCtrl>
    131e:	e7de      	b.n	12de <HalI2C0PinCtrlRtl8195A+0x6a>
    1320:	2900      	cmp	r1, #0
    1322:	d1ba      	bne.n	129a <HalI2C0PinCtrlRtl8195A+0x26>
    1324:	f44f 7322 	mov.w	r3, #648	; 0x288
    1328:	f2c4 0300 	movt	r3, #16384	; 0x4000
    132c:	681a      	ldr	r2, [r3, #0]
    132e:	2001      	movs	r0, #1
    1330:	f022 020e 	bic.w	r2, r2, #14
    1334:	601a      	str	r2, [r3, #0]
    1336:	681a      	ldr	r2, [r3, #0]
    1338:	f022 0201 	bic.w	r2, r2, #1
    133c:	601a      	str	r2, [r3, #0]
    133e:	bd10      	pop	{r4, pc}
    1340:	460a      	mov	r2, r1
    1342:	2007      	movs	r0, #7
    1344:	2103      	movs	r1, #3
    1346:	f7ff fcbd 	bl	cc4 <GPIOCtrl>
    134a:	e7eb      	b.n	1324 <HalI2C0PinCtrlRtl8195A+0xb0>
    134c:	460a      	mov	r2, r1
    134e:	2002      	movs	r0, #2
    1350:	f44f 7140 	mov.w	r1, #768	; 0x300
    1354:	f7ff fcb6 	bl	cc4 <GPIOCtrl>
    1358:	e7e4      	b.n	1324 <HalI2C0PinCtrlRtl8195A+0xb0>
    135a:	460a      	mov	r2, r1
    135c:	2004      	movs	r0, #4
    135e:	21c0      	movs	r1, #192	; 0xc0
    1360:	f7ff fcb0 	bl	cc4 <GPIOCtrl>
    1364:	e7de      	b.n	1324 <HalI2C0PinCtrlRtl8195A+0xb0>
    1366:	460a      	mov	r2, r1
    1368:	2003      	movs	r0, #3
    136a:	2130      	movs	r1, #48	; 0x30
    136c:	f7ff fcaa 	bl	cc4 <GPIOCtrl>
    1370:	e7d8      	b.n	1324 <HalI2C0PinCtrlRtl8195A+0xb0>
    1372:	460a      	mov	r2, r1
    1374:	2004      	movs	r0, #4
    1376:	21c0      	movs	r1, #192	; 0xc0
    1378:	f7ff fca4 	bl	cc4 <GPIOCtrl>
    137c:	e7af      	b.n	12de <HalI2C0PinCtrlRtl8195A+0x6a>
    137e:	bf00      	nop

00001380 <HalI2C1PinCtrlRtl8195A>:
    1380:	2801      	cmp	r0, #1
    1382:	b510      	push	{r4, lr}
    1384:	4604      	mov	r4, r0
    1386:	d03e      	beq.n	1406 <HalI2C1PinCtrlRtl8195A+0x86>
    1388:	d31d      	bcc.n	13c6 <HalI2C1PinCtrlRtl8195A+0x46>
    138a:	2802      	cmp	r0, #2
    138c:	d00e      	beq.n	13ac <HalI2C1PinCtrlRtl8195A+0x2c>
    138e:	b9c1      	cbnz	r1, 13c2 <HalI2C1PinCtrlRtl8195A+0x42>
    1390:	f44f 7322 	mov.w	r3, #648	; 0x288
    1394:	f2c4 0300 	movt	r3, #16384	; 0x4000
    1398:	681a      	ldr	r2, [r3, #0]
    139a:	2001      	movs	r0, #1
    139c:	f022 02e0 	bic.w	r2, r2, #224	; 0xe0
    13a0:	601a      	str	r2, [r3, #0]
    13a2:	681a      	ldr	r2, [r3, #0]
    13a4:	f022 0210 	bic.w	r2, r2, #16
    13a8:	601a      	str	r2, [r3, #0]
    13aa:	bd10      	pop	{r4, pc}
    13ac:	2900      	cmp	r1, #0
    13ae:	d040      	beq.n	1432 <HalI2C1PinCtrlRtl8195A+0xb2>
    13b0:	f240 3334 	movw	r3, #820	; 0x334
    13b4:	f2c1 0300 	movt	r3, #4096	; 0x1000
    13b8:	88db      	ldrh	r3, [r3, #6]
    13ba:	f003 03c0 	and.w	r3, r3, #192	; 0xc0
    13be:	2b00      	cmp	r3, #0
    13c0:	d043      	beq.n	144a <HalI2C1PinCtrlRtl8195A+0xca>
    13c2:	2000      	movs	r0, #0
    13c4:	bd10      	pop	{r4, pc}
    13c6:	b371      	cbz	r1, 1426 <HalI2C1PinCtrlRtl8195A+0xa6>
    13c8:	f240 3334 	movw	r3, #820	; 0x334
    13cc:	f2c1 0300 	movt	r3, #4096	; 0x1000
    13d0:	889b      	ldrh	r3, [r3, #4]
    13d2:	f003 0330 	and.w	r3, r3, #48	; 0x30
    13d6:	2b00      	cmp	r3, #0
    13d8:	d1f3      	bne.n	13c2 <HalI2C1PinCtrlRtl8195A+0x42>
    13da:	460a      	mov	r2, r1
    13dc:	2002      	movs	r0, #2
    13de:	2130      	movs	r1, #48	; 0x30
    13e0:	f7ff fc70 	bl	cc4 <GPIOCtrl>
    13e4:	f44f 7322 	mov.w	r3, #648	; 0x288
    13e8:	f2c4 0300 	movt	r3, #16384	; 0x4000
    13ec:	681a      	ldr	r2, [r3, #0]
    13ee:	0164      	lsls	r4, r4, #5
    13f0:	f022 02e0 	bic.w	r2, r2, #224	; 0xe0
    13f4:	b2e4      	uxtb	r4, r4
    13f6:	4314      	orrs	r4, r2
    13f8:	601c      	str	r4, [r3, #0]
    13fa:	681a      	ldr	r2, [r3, #0]
    13fc:	2001      	movs	r0, #1
    13fe:	f042 0210 	orr.w	r2, r2, #16
    1402:	601a      	str	r2, [r3, #0]
    1404:	bd10      	pop	{r4, pc}
    1406:	b1d1      	cbz	r1, 143e <HalI2C1PinCtrlRtl8195A+0xbe>
    1408:	f240 3334 	movw	r3, #820	; 0x334
    140c:	f2c1 0300 	movt	r3, #4096	; 0x1000
    1410:	89db      	ldrh	r3, [r3, #14]
    1412:	f003 030c 	and.w	r3, r3, #12
    1416:	2b00      	cmp	r3, #0
    1418:	d1d3      	bne.n	13c2 <HalI2C1PinCtrlRtl8195A+0x42>
    141a:	460a      	mov	r2, r1
    141c:	2007      	movs	r0, #7
    141e:	210c      	movs	r1, #12
    1420:	f7ff fc50 	bl	cc4 <GPIOCtrl>
    1424:	e7de      	b.n	13e4 <HalI2C1PinCtrlRtl8195A+0x64>
    1426:	460a      	mov	r2, r1
    1428:	2002      	movs	r0, #2
    142a:	2130      	movs	r1, #48	; 0x30
    142c:	f7ff fc4a 	bl	cc4 <GPIOCtrl>
    1430:	e7ae      	b.n	1390 <HalI2C1PinCtrlRtl8195A+0x10>
    1432:	460a      	mov	r2, r1
    1434:	2003      	movs	r0, #3
    1436:	21c0      	movs	r1, #192	; 0xc0
    1438:	f7ff fc44 	bl	cc4 <GPIOCtrl>
    143c:	e7a8      	b.n	1390 <HalI2C1PinCtrlRtl8195A+0x10>
    143e:	460a      	mov	r2, r1
    1440:	2007      	movs	r0, #7
    1442:	210c      	movs	r1, #12
    1444:	f7ff fc3e 	bl	cc4 <GPIOCtrl>
    1448:	e7a2      	b.n	1390 <HalI2C1PinCtrlRtl8195A+0x10>
    144a:	460a      	mov	r2, r1
    144c:	2003      	movs	r0, #3
    144e:	21c0      	movs	r1, #192	; 0xc0
    1450:	f7ff fc38 	bl	cc4 <GPIOCtrl>
    1454:	e7c6      	b.n	13e4 <HalI2C1PinCtrlRtl8195A+0x64>
    1456:	bf00      	nop

00001458 <HalI2C2PinCtrlRtl8195A>:
    1458:	2801      	cmp	r0, #1
    145a:	b510      	push	{r4, lr}
    145c:	4604      	mov	r4, r0
    145e:	d03f      	beq.n	14e0 <HalI2C2PinCtrlRtl8195A+0x88>
    1460:	d31d      	bcc.n	149e <HalI2C2PinCtrlRtl8195A+0x46>
    1462:	2802      	cmp	r0, #2
    1464:	d00e      	beq.n	1484 <HalI2C2PinCtrlRtl8195A+0x2c>
    1466:	b9c1      	cbnz	r1, 149a <HalI2C2PinCtrlRtl8195A+0x42>
    1468:	f44f 7322 	mov.w	r3, #648	; 0x288
    146c:	f2c4 0300 	movt	r3, #16384	; 0x4000
    1470:	681a      	ldr	r2, [r3, #0]
    1472:	2001      	movs	r0, #1
    1474:	f422 6260 	bic.w	r2, r2, #3584	; 0xe00
    1478:	601a      	str	r2, [r3, #0]
    147a:	681a      	ldr	r2, [r3, #0]
    147c:	f422 7280 	bic.w	r2, r2, #256	; 0x100
    1480:	601a      	str	r2, [r3, #0]
    1482:	bd10      	pop	{r4, pc}
    1484:	2900      	cmp	r1, #0
    1486:	d03f      	beq.n	1508 <HalI2C2PinCtrlRtl8195A+0xb0>
    1488:	f240 3334 	movw	r3, #820	; 0x334
    148c:	f2c1 0300 	movt	r3, #4096	; 0x1000
    1490:	889b      	ldrh	r3, [r3, #4]
    1492:	f003 03c0 	and.w	r3, r3, #192	; 0xc0
    1496:	2b00      	cmp	r3, #0
    1498:	d041      	beq.n	151e <HalI2C2PinCtrlRtl8195A+0xc6>
    149a:	2000      	movs	r0, #0
    149c:	bd10      	pop	{r4, pc}
    149e:	b369      	cbz	r1, 14fc <HalI2C2PinCtrlRtl8195A+0xa4>
    14a0:	f240 3334 	movw	r3, #820	; 0x334
    14a4:	f2c1 0300 	movt	r3, #4096	; 0x1000
    14a8:	885b      	ldrh	r3, [r3, #2]
    14aa:	f003 03c0 	and.w	r3, r3, #192	; 0xc0
    14ae:	2b00      	cmp	r3, #0
    14b0:	d1f3      	bne.n	149a <HalI2C2PinCtrlRtl8195A+0x42>
    14b2:	460a      	mov	r2, r1
    14b4:	2001      	movs	r0, #1
    14b6:	21c0      	movs	r1, #192	; 0xc0
    14b8:	f7ff fc04 	bl	cc4 <GPIOCtrl>
    14bc:	f44f 7322 	mov.w	r3, #648	; 0x288
    14c0:	f2c4 0300 	movt	r3, #16384	; 0x4000
    14c4:	681a      	ldr	r2, [r3, #0]
    14c6:	f004 0407 	and.w	r4, r4, #7
    14ca:	f422 6260 	bic.w	r2, r2, #3584	; 0xe00
    14ce:	ea42 2444 	orr.w	r4, r2, r4, lsl #9
    14d2:	601c      	str	r4, [r3, #0]
    14d4:	681a      	ldr	r2, [r3, #0]
    14d6:	2001      	movs	r0, #1
    14d8:	f442 7280 	orr.w	r2, r2, #256	; 0x100
    14dc:	601a      	str	r2, [r3, #0]
    14de:	bd10      	pop	{r4, pc}
    14e0:	b1b9      	cbz	r1, 1512 <HalI2C2PinCtrlRtl8195A+0xba>
    14e2:	f240 3334 	movw	r3, #820	; 0x334
    14e6:	f2c1 0300 	movt	r3, #4096	; 0x1000
    14ea:	891b      	ldrh	r3, [r3, #8]
    14ec:	079b      	lsls	r3, r3, #30
    14ee:	d1d4      	bne.n	149a <HalI2C2PinCtrlRtl8195A+0x42>
    14f0:	460a      	mov	r2, r1
    14f2:	2004      	movs	r0, #4
    14f4:	2103      	movs	r1, #3
    14f6:	f7ff fbe5 	bl	cc4 <GPIOCtrl>
    14fa:	e7df      	b.n	14bc <HalI2C2PinCtrlRtl8195A+0x64>
    14fc:	460a      	mov	r2, r1
    14fe:	2001      	movs	r0, #1
    1500:	21c0      	movs	r1, #192	; 0xc0
    1502:	f7ff fbdf 	bl	cc4 <GPIOCtrl>
    1506:	e7af      	b.n	1468 <HalI2C2PinCtrlRtl8195A+0x10>
    1508:	460a      	mov	r2, r1
    150a:	21c0      	movs	r1, #192	; 0xc0
    150c:	f7ff fbda 	bl	cc4 <GPIOCtrl>
    1510:	e7aa      	b.n	1468 <HalI2C2PinCtrlRtl8195A+0x10>
    1512:	460a      	mov	r2, r1
    1514:	2004      	movs	r0, #4
    1516:	2103      	movs	r1, #3
    1518:	f7ff fbd4 	bl	cc4 <GPIOCtrl>
    151c:	e7a4      	b.n	1468 <HalI2C2PinCtrlRtl8195A+0x10>
    151e:	460a      	mov	r2, r1
    1520:	21c0      	movs	r1, #192	; 0xc0
    1522:	f7ff fbcf 	bl	cc4 <GPIOCtrl>
    1526:	e7c9      	b.n	14bc <HalI2C2PinCtrlRtl8195A+0x64>

00001528 <HalI2C3PinCtrlRtl8195A>:
    1528:	b510      	push	{r4, lr}
    152a:	4604      	mov	r4, r0
    152c:	2803      	cmp	r0, #3
    152e:	d852      	bhi.n	15d6 <HalI2C3PinCtrlRtl8195A+0xae>
    1530:	e8df f000 	tbb	[pc, r0]
    1534:	020f2041 	.word	0x020f2041
    1538:	2900      	cmp	r1, #0
    153a:	d068      	beq.n	160e <HalI2C3PinCtrlRtl8195A+0xe6>
    153c:	f240 3334 	movw	r3, #820	; 0x334
    1540:	f2c1 0300 	movt	r3, #4096	; 0x1000
    1544:	88db      	ldrh	r3, [r3, #6]
    1546:	f403 7340 	and.w	r3, r3, #768	; 0x300
    154a:	2b00      	cmp	r3, #0
    154c:	d06c      	beq.n	1628 <HalI2C3PinCtrlRtl8195A+0x100>
    154e:	2000      	movs	r0, #0
    1550:	bd10      	pop	{r4, pc}
    1552:	2900      	cmp	r1, #0
    1554:	d055      	beq.n	1602 <HalI2C3PinCtrlRtl8195A+0xda>
    1556:	f240 3334 	movw	r3, #820	; 0x334
    155a:	f2c1 0300 	movt	r3, #4096	; 0x1000
    155e:	891b      	ldrh	r3, [r3, #8]
    1560:	f003 0330 	and.w	r3, r3, #48	; 0x30
    1564:	2b00      	cmp	r3, #0
    1566:	d1f2      	bne.n	154e <HalI2C3PinCtrlRtl8195A+0x26>
    1568:	460a      	mov	r2, r1
    156a:	2004      	movs	r0, #4
    156c:	2130      	movs	r1, #48	; 0x30
    156e:	f7ff fba9 	bl	cc4 <GPIOCtrl>
    1572:	e00f      	b.n	1594 <HalI2C3PinCtrlRtl8195A+0x6c>
    1574:	2900      	cmp	r1, #0
    1576:	d03e      	beq.n	15f6 <HalI2C3PinCtrlRtl8195A+0xce>
    1578:	f240 3334 	movw	r3, #820	; 0x334
    157c:	f2c1 0300 	movt	r3, #4096	; 0x1000
    1580:	891b      	ldrh	r3, [r3, #8]
    1582:	f003 030c 	and.w	r3, r3, #12
    1586:	2b00      	cmp	r3, #0
    1588:	d1e1      	bne.n	154e <HalI2C3PinCtrlRtl8195A+0x26>
    158a:	460a      	mov	r2, r1
    158c:	2004      	movs	r0, #4
    158e:	210c      	movs	r1, #12
    1590:	f7ff fb98 	bl	cc4 <GPIOCtrl>
    1594:	f44f 7322 	mov.w	r3, #648	; 0x288
    1598:	f2c4 0300 	movt	r3, #16384	; 0x4000
    159c:	681a      	ldr	r2, [r3, #0]
    159e:	0364      	lsls	r4, r4, #13
    15a0:	f422 4260 	bic.w	r2, r2, #57344	; 0xe000
    15a4:	b2a4      	uxth	r4, r4
    15a6:	4314      	orrs	r4, r2
    15a8:	601c      	str	r4, [r3, #0]
    15aa:	681a      	ldr	r2, [r3, #0]
    15ac:	2001      	movs	r0, #1
    15ae:	f442 5280 	orr.w	r2, r2, #4096	; 0x1000
    15b2:	601a      	str	r2, [r3, #0]
    15b4:	bd10      	pop	{r4, pc}
    15b6:	b389      	cbz	r1, 161c <HalI2C3PinCtrlRtl8195A+0xf4>
    15b8:	f240 3334 	movw	r3, #820	; 0x334
    15bc:	f2c1 0300 	movt	r3, #4096	; 0x1000
    15c0:	885b      	ldrh	r3, [r3, #2]
    15c2:	f003 030c 	and.w	r3, r3, #12
    15c6:	2b00      	cmp	r3, #0
    15c8:	d1c1      	bne.n	154e <HalI2C3PinCtrlRtl8195A+0x26>
    15ca:	460a      	mov	r2, r1
    15cc:	2001      	movs	r0, #1
    15ce:	210c      	movs	r1, #12
    15d0:	f7ff fb78 	bl	cc4 <GPIOCtrl>
    15d4:	e7de      	b.n	1594 <HalI2C3PinCtrlRtl8195A+0x6c>
    15d6:	2900      	cmp	r1, #0
    15d8:	d1b9      	bne.n	154e <HalI2C3PinCtrlRtl8195A+0x26>
    15da:	f44f 7322 	mov.w	r3, #648	; 0x288
    15de:	f2c4 0300 	movt	r3, #16384	; 0x4000
    15e2:	681a      	ldr	r2, [r3, #0]
    15e4:	2001      	movs	r0, #1
    15e6:	f422 4260 	bic.w	r2, r2, #57344	; 0xe000
    15ea:	601a      	str	r2, [r3, #0]
    15ec:	681a      	ldr	r2, [r3, #0]
    15ee:	f422 5280 	bic.w	r2, r2, #4096	; 0x1000
    15f2:	601a      	str	r2, [r3, #0]
    15f4:	bd10      	pop	{r4, pc}
    15f6:	460a      	mov	r2, r1
    15f8:	2004      	movs	r0, #4
    15fa:	210c      	movs	r1, #12
    15fc:	f7ff fb62 	bl	cc4 <GPIOCtrl>
    1600:	e7eb      	b.n	15da <HalI2C3PinCtrlRtl8195A+0xb2>
    1602:	460a      	mov	r2, r1
    1604:	2004      	movs	r0, #4
    1606:	2130      	movs	r1, #48	; 0x30
    1608:	f7ff fb5c 	bl	cc4 <GPIOCtrl>
    160c:	e7e5      	b.n	15da <HalI2C3PinCtrlRtl8195A+0xb2>
    160e:	460a      	mov	r2, r1
    1610:	2003      	movs	r0, #3
    1612:	f44f 7140 	mov.w	r1, #768	; 0x300
    1616:	f7ff fb55 	bl	cc4 <GPIOCtrl>
    161a:	e7de      	b.n	15da <HalI2C3PinCtrlRtl8195A+0xb2>
    161c:	460a      	mov	r2, r1
    161e:	2001      	movs	r0, #1
    1620:	210c      	movs	r1, #12
    1622:	f7ff fb4f 	bl	cc4 <GPIOCtrl>
    1626:	e7d8      	b.n	15da <HalI2C3PinCtrlRtl8195A+0xb2>
    1628:	460a      	mov	r2, r1
    162a:	2003      	movs	r0, #3
    162c:	f44f 7140 	mov.w	r1, #768	; 0x300
    1630:	f7ff fb48 	bl	cc4 <GPIOCtrl>
    1634:	e7ae      	b.n	1594 <HalI2C3PinCtrlRtl8195A+0x6c>
    1636:	bf00      	nop

00001638 <HalI2S0PinCtrlRtl8195A>:
    1638:	b538      	push	{r3, r4, r5, lr}
    163a:	4604      	mov	r4, r0
    163c:	460d      	mov	r5, r1
    163e:	2803      	cmp	r0, #3
    1640:	d85e      	bhi.n	1700 <HalI2S0PinCtrlRtl8195A+0xc8>
    1642:	e8df f000 	tbb	[pc, r0]
    1646:	2041      	.short	0x2041
    1648:	020f      	.short	0x020f
    164a:	2900      	cmp	r1, #0
    164c:	d074      	beq.n	1738 <HalI2S0PinCtrlRtl8195A+0x100>
    164e:	f240 3334 	movw	r3, #820	; 0x334
    1652:	f2c1 0300 	movt	r3, #4096	; 0x1000
    1656:	889b      	ldrh	r3, [r3, #4]
    1658:	f403 7378 	and.w	r3, r3, #992	; 0x3e0
    165c:	2b00      	cmp	r3, #0
    165e:	d07d      	beq.n	175c <HalI2S0PinCtrlRtl8195A+0x124>
    1660:	2000      	movs	r0, #0
    1662:	bd38      	pop	{r3, r4, r5, pc}
    1664:	2900      	cmp	r1, #0
    1666:	d061      	beq.n	172c <HalI2S0PinCtrlRtl8195A+0xf4>
    1668:	f240 3334 	movw	r3, #820	; 0x334
    166c:	f2c1 0300 	movt	r3, #4096	; 0x1000
    1670:	88db      	ldrh	r3, [r3, #6]
    1672:	f003 034f 	and.w	r3, r3, #79	; 0x4f
    1676:	2b00      	cmp	r3, #0
    1678:	d1f2      	bne.n	1660 <HalI2S0PinCtrlRtl8195A+0x28>
    167a:	460a      	mov	r2, r1
    167c:	2003      	movs	r0, #3
    167e:	214f      	movs	r1, #79	; 0x4f
    1680:	f7ff fb20 	bl	cc4 <GPIOCtrl>
    1684:	e00f      	b.n	16a6 <HalI2S0PinCtrlRtl8195A+0x6e>
    1686:	2900      	cmp	r1, #0
    1688:	d04a      	beq.n	1720 <HalI2S0PinCtrlRtl8195A+0xe8>
    168a:	f240 3334 	movw	r3, #820	; 0x334
    168e:	f2c1 0300 	movt	r3, #4096	; 0x1000
    1692:	89db      	ldrh	r3, [r3, #14]
    1694:	f003 032f 	and.w	r3, r3, #47	; 0x2f
    1698:	2b00      	cmp	r3, #0
    169a:	d1e1      	bne.n	1660 <HalI2S0PinCtrlRtl8195A+0x28>
    169c:	460a      	mov	r2, r1
    169e:	2007      	movs	r0, #7
    16a0:	212f      	movs	r1, #47	; 0x2f
    16a2:	f7ff fb0f 	bl	cc4 <GPIOCtrl>
    16a6:	f44f 7323 	mov.w	r3, #652	; 0x28c
    16aa:	f2c4 0300 	movt	r3, #16384	; 0x4000
    16ae:	681a      	ldr	r2, [r3, #0]
    16b0:	f004 0403 	and.w	r4, r4, #3
    16b4:	f022 020c 	bic.w	r2, r2, #12
    16b8:	ea42 0484 	orr.w	r4, r2, r4, lsl #2
    16bc:	601c      	str	r4, [r3, #0]
    16be:	681a      	ldr	r2, [r3, #0]
    16c0:	2001      	movs	r0, #1
    16c2:	4302      	orrs	r2, r0
    16c4:	601a      	str	r2, [r3, #0]
    16c6:	bd38      	pop	{r3, r4, r5, pc}
    16c8:	2900      	cmp	r1, #0
    16ca:	d03c      	beq.n	1746 <HalI2S0PinCtrlRtl8195A+0x10e>
    16cc:	f240 3334 	movw	r3, #820	; 0x334
    16d0:	f2c1 0300 	movt	r3, #4096	; 0x1000
    16d4:	88d8      	ldrh	r0, [r3, #6]
    16d6:	891b      	ldrh	r3, [r3, #8]
    16d8:	f000 0040 	and.w	r0, r0, #64	; 0x40
    16dc:	b280      	uxth	r0, r0
    16de:	f003 030f 	and.w	r3, r3, #15
    16e2:	2800      	cmp	r0, #0
    16e4:	d1bc      	bne.n	1660 <HalI2S0PinCtrlRtl8195A+0x28>
    16e6:	2b00      	cmp	r3, #0
    16e8:	d1bb      	bne.n	1662 <HalI2S0PinCtrlRtl8195A+0x2a>
    16ea:	462a      	mov	r2, r5
    16ec:	2004      	movs	r0, #4
    16ee:	210f      	movs	r1, #15
    16f0:	f7ff fae8 	bl	cc4 <GPIOCtrl>
    16f4:	462a      	mov	r2, r5
    16f6:	2003      	movs	r0, #3
    16f8:	2140      	movs	r1, #64	; 0x40
    16fa:	f7ff fae3 	bl	cc4 <GPIOCtrl>
    16fe:	e7d2      	b.n	16a6 <HalI2S0PinCtrlRtl8195A+0x6e>
    1700:	2900      	cmp	r1, #0
    1702:	d1ad      	bne.n	1660 <HalI2S0PinCtrlRtl8195A+0x28>
    1704:	f44f 7323 	mov.w	r3, #652	; 0x28c
    1708:	f2c4 0300 	movt	r3, #16384	; 0x4000
    170c:	681a      	ldr	r2, [r3, #0]
    170e:	2001      	movs	r0, #1
    1710:	f022 020c 	bic.w	r2, r2, #12
    1714:	601a      	str	r2, [r3, #0]
    1716:	681a      	ldr	r2, [r3, #0]
    1718:	f022 0201 	bic.w	r2, r2, #1
    171c:	601a      	str	r2, [r3, #0]
    171e:	bd38      	pop	{r3, r4, r5, pc}
    1720:	460a      	mov	r2, r1
    1722:	2007      	movs	r0, #7
    1724:	212f      	movs	r1, #47	; 0x2f
    1726:	f7ff facd 	bl	cc4 <GPIOCtrl>
    172a:	e7eb      	b.n	1704 <HalI2S0PinCtrlRtl8195A+0xcc>
    172c:	460a      	mov	r2, r1
    172e:	2003      	movs	r0, #3
    1730:	214f      	movs	r1, #79	; 0x4f
    1732:	f7ff fac7 	bl	cc4 <GPIOCtrl>
    1736:	e7e5      	b.n	1704 <HalI2S0PinCtrlRtl8195A+0xcc>
    1738:	460a      	mov	r2, r1
    173a:	2002      	movs	r0, #2
    173c:	f44f 7178 	mov.w	r1, #992	; 0x3e0
    1740:	f7ff fac0 	bl	cc4 <GPIOCtrl>
    1744:	e7de      	b.n	1704 <HalI2S0PinCtrlRtl8195A+0xcc>
    1746:	462a      	mov	r2, r5
    1748:	2004      	movs	r0, #4
    174a:	210f      	movs	r1, #15
    174c:	f7ff faba 	bl	cc4 <GPIOCtrl>
    1750:	462a      	mov	r2, r5
    1752:	2003      	movs	r0, #3
    1754:	2140      	movs	r1, #64	; 0x40
    1756:	f7ff fab5 	bl	cc4 <GPIOCtrl>
    175a:	e7d3      	b.n	1704 <HalI2S0PinCtrlRtl8195A+0xcc>
    175c:	460a      	mov	r2, r1
    175e:	2002      	movs	r0, #2
    1760:	f44f 7178 	mov.w	r1, #992	; 0x3e0
    1764:	f7ff faae 	bl	cc4 <GPIOCtrl>
    1768:	e79d      	b.n	16a6 <HalI2S0PinCtrlRtl8195A+0x6e>
    176a:	bf00      	nop

0000176c <HalI2S1PinCtrlRtl8195A>:
    176c:	2801      	cmp	r0, #1
    176e:	b510      	push	{r4, lr}
    1770:	4604      	mov	r4, r0
    1772:	d03c      	beq.n	17ee <HalI2S1PinCtrlRtl8195A+0x82>
    1774:	d31d      	bcc.n	17b2 <HalI2S1PinCtrlRtl8195A+0x46>
    1776:	2802      	cmp	r0, #2
    1778:	d00e      	beq.n	1798 <HalI2S1PinCtrlRtl8195A+0x2c>
    177a:	b9c1      	cbnz	r1, 17ae <HalI2S1PinCtrlRtl8195A+0x42>
    177c:	f44f 7323 	mov.w	r3, #652	; 0x28c
    1780:	f2c4 0300 	movt	r3, #16384	; 0x4000
    1784:	681a      	ldr	r2, [r3, #0]
    1786:	2001      	movs	r0, #1
    1788:	f022 02c0 	bic.w	r2, r2, #192	; 0xc0
    178c:	601a      	str	r2, [r3, #0]
    178e:	681a      	ldr	r2, [r3, #0]
    1790:	f022 0210 	bic.w	r2, r2, #16
    1794:	601a      	str	r2, [r3, #0]
    1796:	bd10      	pop	{r4, pc}
    1798:	2900      	cmp	r1, #0
    179a:	d03e      	beq.n	181a <HalI2S1PinCtrlRtl8195A+0xae>
    179c:	f240 3334 	movw	r3, #820	; 0x334
    17a0:	f2c1 0300 	movt	r3, #4096	; 0x1000
    17a4:	891b      	ldrh	r3, [r3, #8]
    17a6:	f403 73f8 	and.w	r3, r3, #496	; 0x1f0
    17aa:	2b00      	cmp	r3, #0
    17ac:	d042      	beq.n	1834 <HalI2S1PinCtrlRtl8195A+0xc8>
    17ae:	2000      	movs	r0, #0
    17b0:	bd10      	pop	{r4, pc}
    17b2:	b361      	cbz	r1, 180e <HalI2S1PinCtrlRtl8195A+0xa2>
    17b4:	f240 3334 	movw	r3, #820	; 0x334
    17b8:	f2c1 0300 	movt	r3, #4096	; 0x1000
    17bc:	889b      	ldrh	r3, [r3, #4]
    17be:	06db      	lsls	r3, r3, #27
    17c0:	d1f5      	bne.n	17ae <HalI2S1PinCtrlRtl8195A+0x42>
    17c2:	460a      	mov	r2, r1
    17c4:	2002      	movs	r0, #2
    17c6:	211f      	movs	r1, #31
    17c8:	f7ff fa7c 	bl	cc4 <GPIOCtrl>
    17cc:	f44f 7323 	mov.w	r3, #652	; 0x28c
    17d0:	f2c4 0300 	movt	r3, #16384	; 0x4000
    17d4:	681a      	ldr	r2, [r3, #0]
    17d6:	01a4      	lsls	r4, r4, #6
    17d8:	f022 02c0 	bic.w	r2, r2, #192	; 0xc0
    17dc:	b2e4      	uxtb	r4, r4
    17de:	4314      	orrs	r4, r2
    17e0:	601c      	str	r4, [r3, #0]
    17e2:	681a      	ldr	r2, [r3, #0]
    17e4:	2001      	movs	r0, #1
    17e6:	f042 0210 	orr.w	r2, r2, #16
    17ea:	601a      	str	r2, [r3, #0]
    17ec:	bd10      	pop	{r4, pc}
    17ee:	b1d9      	cbz	r1, 1828 <HalI2S1PinCtrlRtl8195A+0xbc>
    17f0:	f240 3334 	movw	r3, #820	; 0x334
    17f4:	f2c1 0300 	movt	r3, #4096	; 0x1000
    17f8:	88db      	ldrh	r3, [r3, #6]
    17fa:	f003 03f8 	and.w	r3, r3, #248	; 0xf8
    17fe:	2b00      	cmp	r3, #0
    1800:	d1d5      	bne.n	17ae <HalI2S1PinCtrlRtl8195A+0x42>
    1802:	460a      	mov	r2, r1
    1804:	2003      	movs	r0, #3
    1806:	21f8      	movs	r1, #248	; 0xf8
    1808:	f7ff fa5c 	bl	cc4 <GPIOCtrl>
    180c:	e7de      	b.n	17cc <HalI2S1PinCtrlRtl8195A+0x60>
    180e:	460a      	mov	r2, r1
    1810:	2002      	movs	r0, #2
    1812:	211f      	movs	r1, #31
    1814:	f7ff fa56 	bl	cc4 <GPIOCtrl>
    1818:	e7b0      	b.n	177c <HalI2S1PinCtrlRtl8195A+0x10>
    181a:	460a      	mov	r2, r1
    181c:	2004      	movs	r0, #4
    181e:	f44f 71f8 	mov.w	r1, #496	; 0x1f0
    1822:	f7ff fa4f 	bl	cc4 <GPIOCtrl>
    1826:	e7a9      	b.n	177c <HalI2S1PinCtrlRtl8195A+0x10>
    1828:	460a      	mov	r2, r1
    182a:	2003      	movs	r0, #3
    182c:	21f8      	movs	r1, #248	; 0xf8
    182e:	f7ff fa49 	bl	cc4 <GPIOCtrl>
    1832:	e7a3      	b.n	177c <HalI2S1PinCtrlRtl8195A+0x10>
    1834:	460a      	mov	r2, r1
    1836:	2004      	movs	r0, #4
    1838:	f44f 71f8 	mov.w	r1, #496	; 0x1f0
    183c:	f7ff fa42 	bl	cc4 <GPIOCtrl>
    1840:	e7c4      	b.n	17cc <HalI2S1PinCtrlRtl8195A+0x60>
    1842:	bf00      	nop

00001844 <HalPCM0PinCtrlRtl8195A>:
    1844:	b510      	push	{r4, lr}
    1846:	4604      	mov	r4, r0
    1848:	2803      	cmp	r0, #3
    184a:	d84e      	bhi.n	18ea <HalPCM0PinCtrlRtl8195A+0xa6>
    184c:	e8df f000 	tbb	[pc, r0]
    1850:	020d1c3f 	.word	0x020d1c3f
    1854:	2900      	cmp	r1, #0
    1856:	d065      	beq.n	1924 <HalPCM0PinCtrlRtl8195A+0xe0>
    1858:	f240 3334 	movw	r3, #820	; 0x334
    185c:	f2c1 0300 	movt	r3, #4096	; 0x1000
    1860:	891b      	ldrh	r3, [r3, #8]
    1862:	071b      	lsls	r3, r3, #28
    1864:	d06a      	beq.n	193c <HalPCM0PinCtrlRtl8195A+0xf8>
    1866:	2000      	movs	r0, #0
    1868:	bd10      	pop	{r4, pc}
    186a:	2900      	cmp	r1, #0
    186c:	d054      	beq.n	1918 <HalPCM0PinCtrlRtl8195A+0xd4>
    186e:	f240 3334 	movw	r3, #820	; 0x334
    1872:	f2c1 0300 	movt	r3, #4096	; 0x1000
    1876:	88db      	ldrh	r3, [r3, #6]
    1878:	071a      	lsls	r2, r3, #28
    187a:	d1f4      	bne.n	1866 <HalPCM0PinCtrlRtl8195A+0x22>
    187c:	460a      	mov	r2, r1
    187e:	2003      	movs	r0, #3
    1880:	210f      	movs	r1, #15
    1882:	f7ff fa1f 	bl	cc4 <GPIOCtrl>
    1886:	e010      	b.n	18aa <HalPCM0PinCtrlRtl8195A+0x66>
    1888:	2900      	cmp	r1, #0
    188a:	d03e      	beq.n	190a <HalPCM0PinCtrlRtl8195A+0xc6>
    188c:	f240 3334 	movw	r3, #820	; 0x334
    1890:	f2c1 0300 	movt	r3, #4096	; 0x1000
    1894:	889b      	ldrh	r3, [r3, #4]
    1896:	f403 7370 	and.w	r3, r3, #960	; 0x3c0
    189a:	2b00      	cmp	r3, #0
    189c:	d1e3      	bne.n	1866 <HalPCM0PinCtrlRtl8195A+0x22>
    189e:	460a      	mov	r2, r1
    18a0:	2002      	movs	r0, #2
    18a2:	f44f 7170 	mov.w	r1, #960	; 0x3c0
    18a6:	f7ff fa0d 	bl	cc4 <GPIOCtrl>
    18aa:	f44f 7323 	mov.w	r3, #652	; 0x28c
    18ae:	f2c4 0300 	movt	r3, #16384	; 0x4000
    18b2:	681a      	ldr	r2, [r3, #0]
    18b4:	f004 0407 	and.w	r4, r4, #7
    18b8:	f422 2260 	bic.w	r2, r2, #917504	; 0xe0000
    18bc:	ea42 4444 	orr.w	r4, r2, r4, lsl #17
    18c0:	601c      	str	r4, [r3, #0]
    18c2:	681a      	ldr	r2, [r3, #0]
    18c4:	2001      	movs	r0, #1
    18c6:	f442 3280 	orr.w	r2, r2, #65536	; 0x10000
    18ca:	601a      	str	r2, [r3, #0]
    18cc:	bd10      	pop	{r4, pc}
    18ce:	b379      	cbz	r1, 1930 <HalPCM0PinCtrlRtl8195A+0xec>
    18d0:	f240 3334 	movw	r3, #820	; 0x334
    18d4:	f2c1 0300 	movt	r3, #4096	; 0x1000
    18d8:	89db      	ldrh	r3, [r3, #14]
    18da:	0718      	lsls	r0, r3, #28
    18dc:	d1c3      	bne.n	1866 <HalPCM0PinCtrlRtl8195A+0x22>
    18de:	460a      	mov	r2, r1
    18e0:	2007      	movs	r0, #7
    18e2:	210f      	movs	r1, #15
    18e4:	f7ff f9ee 	bl	cc4 <GPIOCtrl>
    18e8:	e7df      	b.n	18aa <HalPCM0PinCtrlRtl8195A+0x66>
    18ea:	2900      	cmp	r1, #0
    18ec:	d1bb      	bne.n	1866 <HalPCM0PinCtrlRtl8195A+0x22>
    18ee:	f44f 7323 	mov.w	r3, #652	; 0x28c
    18f2:	f2c4 0300 	movt	r3, #16384	; 0x4000
    18f6:	681a      	ldr	r2, [r3, #0]
    18f8:	2001      	movs	r0, #1
    18fa:	f422 2260 	bic.w	r2, r2, #917504	; 0xe0000
    18fe:	601a      	str	r2, [r3, #0]
    1900:	681a      	ldr	r2, [r3, #0]
    1902:	f422 3280 	bic.w	r2, r2, #65536	; 0x10000
    1906:	601a      	str	r2, [r3, #0]
    1908:	bd10      	pop	{r4, pc}
    190a:	460a      	mov	r2, r1
    190c:	2002      	movs	r0, #2
    190e:	f44f 7170 	mov.w	r1, #960	; 0x3c0
    1912:	f7ff f9d7 	bl	cc4 <GPIOCtrl>
    1916:	e7ea      	b.n	18ee <HalPCM0PinCtrlRtl8195A+0xaa>
    1918:	460a      	mov	r2, r1
    191a:	2003      	movs	r0, #3
    191c:	210f      	movs	r1, #15
    191e:	f7ff f9d1 	bl	cc4 <GPIOCtrl>
    1922:	e7e4      	b.n	18ee <HalPCM0PinCtrlRtl8195A+0xaa>
    1924:	460a      	mov	r2, r1
    1926:	2004      	movs	r0, #4
    1928:	210f      	movs	r1, #15
    192a:	f7ff f9cb 	bl	cc4 <GPIOCtrl>
    192e:	e7de      	b.n	18ee <HalPCM0PinCtrlRtl8195A+0xaa>
    1930:	460a      	mov	r2, r1
    1932:	2007      	movs	r0, #7
    1934:	210f      	movs	r1, #15
    1936:	f7ff f9c5 	bl	cc4 <GPIOCtrl>
    193a:	e7d8      	b.n	18ee <HalPCM0PinCtrlRtl8195A+0xaa>
    193c:	460a      	mov	r2, r1
    193e:	2004      	movs	r0, #4
    1940:	210f      	movs	r1, #15
    1942:	f7ff f9bf 	bl	cc4 <GPIOCtrl>
    1946:	e7b0      	b.n	18aa <HalPCM0PinCtrlRtl8195A+0x66>

00001948 <HalPCM1PinCtrlRtl8195A>:
    1948:	2801      	cmp	r0, #1
    194a:	b510      	push	{r4, lr}
    194c:	4604      	mov	r4, r0
    194e:	d03d      	beq.n	19cc <HalPCM1PinCtrlRtl8195A+0x84>
    1950:	d31d      	bcc.n	198e <HalPCM1PinCtrlRtl8195A+0x46>
    1952:	2802      	cmp	r0, #2
    1954:	d00e      	beq.n	1974 <HalPCM1PinCtrlRtl8195A+0x2c>
    1956:	b9c1      	cbnz	r1, 198a <HalPCM1PinCtrlRtl8195A+0x42>
    1958:	f44f 7323 	mov.w	r3, #652	; 0x28c
    195c:	f2c4 0300 	movt	r3, #16384	; 0x4000
    1960:	681a      	ldr	r2, [r3, #0]
    1962:	2001      	movs	r0, #1
    1964:	f422 0260 	bic.w	r2, r2, #14680064	; 0xe00000
    1968:	601a      	str	r2, [r3, #0]
    196a:	681a      	ldr	r2, [r3, #0]
    196c:	f422 1280 	bic.w	r2, r2, #1048576	; 0x100000
    1970:	601a      	str	r2, [r3, #0]
    1972:	bd10      	pop	{r4, pc}
    1974:	2900      	cmp	r1, #0
    1976:	d03f      	beq.n	19f8 <HalPCM1PinCtrlRtl8195A+0xb0>
    1978:	f240 3334 	movw	r3, #820	; 0x334
    197c:	f2c1 0300 	movt	r3, #4096	; 0x1000
    1980:	891b      	ldrh	r3, [r3, #8]
    1982:	f003 03f0 	and.w	r3, r3, #240	; 0xf0
    1986:	2b00      	cmp	r3, #0
    1988:	d042      	beq.n	1a10 <HalPCM1PinCtrlRtl8195A+0xc8>
    198a:	2000      	movs	r0, #0
    198c:	bd10      	pop	{r4, pc}
    198e:	b369      	cbz	r1, 19ec <HalPCM1PinCtrlRtl8195A+0xa4>
    1990:	f240 3334 	movw	r3, #820	; 0x334
    1994:	f2c1 0300 	movt	r3, #4096	; 0x1000
    1998:	889b      	ldrh	r3, [r3, #4]
    199a:	071b      	lsls	r3, r3, #28
    199c:	d1f5      	bne.n	198a <HalPCM1PinCtrlRtl8195A+0x42>
    199e:	460a      	mov	r2, r1
    19a0:	2002      	movs	r0, #2
    19a2:	210f      	movs	r1, #15
    19a4:	f7ff f98e 	bl	cc4 <GPIOCtrl>
    19a8:	f44f 7323 	mov.w	r3, #652	; 0x28c
    19ac:	f2c4 0300 	movt	r3, #16384	; 0x4000
    19b0:	681a      	ldr	r2, [r3, #0]
    19b2:	f004 0407 	and.w	r4, r4, #7
    19b6:	f422 0260 	bic.w	r2, r2, #14680064	; 0xe00000
    19ba:	ea42 5444 	orr.w	r4, r2, r4, lsl #21
    19be:	601c      	str	r4, [r3, #0]
    19c0:	681a      	ldr	r2, [r3, #0]
    19c2:	2001      	movs	r0, #1
    19c4:	f442 1280 	orr.w	r2, r2, #1048576	; 0x100000
    19c8:	601a      	str	r2, [r3, #0]
    19ca:	bd10      	pop	{r4, pc}
    19cc:	b1d1      	cbz	r1, 1a04 <HalPCM1PinCtrlRtl8195A+0xbc>
    19ce:	f240 3334 	movw	r3, #820	; 0x334
    19d2:	f2c1 0300 	movt	r3, #4096	; 0x1000
    19d6:	88db      	ldrh	r3, [r3, #6]
    19d8:	f003 03f0 	and.w	r3, r3, #240	; 0xf0
    19dc:	2b00      	cmp	r3, #0
    19de:	d1d4      	bne.n	198a <HalPCM1PinCtrlRtl8195A+0x42>
    19e0:	460a      	mov	r2, r1
    19e2:	2003      	movs	r0, #3
    19e4:	21f0      	movs	r1, #240	; 0xf0
    19e6:	f7ff f96d 	bl	cc4 <GPIOCtrl>
    19ea:	e7dd      	b.n	19a8 <HalPCM1PinCtrlRtl8195A+0x60>
    19ec:	460a      	mov	r2, r1
    19ee:	2002      	movs	r0, #2
    19f0:	210f      	movs	r1, #15
    19f2:	f7ff f967 	bl	cc4 <GPIOCtrl>
    19f6:	e7af      	b.n	1958 <HalPCM1PinCtrlRtl8195A+0x10>
    19f8:	460a      	mov	r2, r1
    19fa:	2004      	movs	r0, #4
    19fc:	21f0      	movs	r1, #240	; 0xf0
    19fe:	f7ff f961 	bl	cc4 <GPIOCtrl>
    1a02:	e7a9      	b.n	1958 <HalPCM1PinCtrlRtl8195A+0x10>
    1a04:	460a      	mov	r2, r1
    1a06:	2003      	movs	r0, #3
    1a08:	21f0      	movs	r1, #240	; 0xf0
    1a0a:	f7ff f95b 	bl	cc4 <GPIOCtrl>
    1a0e:	e7a3      	b.n	1958 <HalPCM1PinCtrlRtl8195A+0x10>
    1a10:	460a      	mov	r2, r1
    1a12:	2004      	movs	r0, #4
    1a14:	21f0      	movs	r1, #240	; 0xf0
    1a16:	f7ff f955 	bl	cc4 <GPIOCtrl>
    1a1a:	e7c5      	b.n	19a8 <HalPCM1PinCtrlRtl8195A+0x60>

00001a1c <HalSDIODPinCtrlRtl8195A>:
    1a1c:	b508      	push	{r3, lr}
    1a1e:	b1b1      	cbz	r1, 1a4e <HalSDIODPinCtrlRtl8195A+0x32>
    1a20:	f240 3334 	movw	r3, #820	; 0x334
    1a24:	f2c1 0300 	movt	r3, #4096	; 0x1000
    1a28:	8818      	ldrh	r0, [r3, #0]
    1a2a:	f010 007f 	ands.w	r0, r0, #127	; 0x7f
    1a2e:	d001      	beq.n	1a34 <HalSDIODPinCtrlRtl8195A+0x18>
    1a30:	2000      	movs	r0, #0
    1a32:	bd08      	pop	{r3, pc}
    1a34:	217f      	movs	r1, #127	; 0x7f
    1a36:	f7ff f92f 	bl	c98 <GPIOCtrl.part.0>
    1a3a:	f44f 7328 	mov.w	r3, #672	; 0x2a0
    1a3e:	f2c4 0300 	movt	r3, #16384	; 0x4000
    1a42:	681a      	ldr	r2, [r3, #0]
    1a44:	2001      	movs	r0, #1
    1a46:	f042 0202 	orr.w	r2, r2, #2
    1a4a:	601a      	str	r2, [r3, #0]
    1a4c:	bd08      	pop	{r3, pc}
    1a4e:	4608      	mov	r0, r1
    1a50:	217f      	movs	r1, #127	; 0x7f
    1a52:	4602      	mov	r2, r0
    1a54:	f7ff f936 	bl	cc4 <GPIOCtrl>
    1a58:	f44f 7328 	mov.w	r3, #672	; 0x2a0
    1a5c:	f2c4 0300 	movt	r3, #16384	; 0x4000
    1a60:	681a      	ldr	r2, [r3, #0]
    1a62:	2001      	movs	r0, #1
    1a64:	f022 0202 	bic.w	r2, r2, #2
    1a68:	601a      	str	r2, [r3, #0]
    1a6a:	bd08      	pop	{r3, pc}

00001a6c <HalSDIOHPinCtrlRtl8195A>:
    1a6c:	b508      	push	{r3, lr}
    1a6e:	b1a1      	cbz	r1, 1a9a <HalSDIOHPinCtrlRtl8195A+0x2e>
    1a70:	f240 3334 	movw	r3, #820	; 0x334
    1a74:	f2c1 0300 	movt	r3, #4096	; 0x1000
    1a78:	7818      	ldrb	r0, [r3, #0]
    1a7a:	b108      	cbz	r0, 1a80 <HalSDIOHPinCtrlRtl8195A+0x14>
    1a7c:	2000      	movs	r0, #0
    1a7e:	bd08      	pop	{r3, pc}
    1a80:	21ff      	movs	r1, #255	; 0xff
    1a82:	f7ff f909 	bl	c98 <GPIOCtrl.part.0>
    1a86:	f44f 7328 	mov.w	r3, #672	; 0x2a0
    1a8a:	f2c4 0300 	movt	r3, #16384	; 0x4000
    1a8e:	681a      	ldr	r2, [r3, #0]
    1a90:	2001      	movs	r0, #1
    1a92:	f042 0202 	orr.w	r2, r2, #2
    1a96:	601a      	str	r2, [r3, #0]
    1a98:	bd08      	pop	{r3, pc}
    1a9a:	4608      	mov	r0, r1
    1a9c:	21ff      	movs	r1, #255	; 0xff
    1a9e:	4602      	mov	r2, r0
    1aa0:	f7ff f910 	bl	cc4 <GPIOCtrl>
    1aa4:	f44f 7328 	mov.w	r3, #672	; 0x2a0
    1aa8:	f2c4 0300 	movt	r3, #16384	; 0x4000
    1aac:	681a      	ldr	r2, [r3, #0]
    1aae:	2001      	movs	r0, #1
    1ab0:	f022 0202 	bic.w	r2, r2, #2
    1ab4:	601a      	str	r2, [r3, #0]
    1ab6:	bd08      	pop	{r3, pc}

00001ab8 <HalMIIPinCtrlRtl8195A>:
    1ab8:	b510      	push	{r4, lr}
    1aba:	460c      	mov	r4, r1
    1abc:	b379      	cbz	r1, 1b1e <HalMIIPinCtrlRtl8195A+0x66>
    1abe:	f240 3334 	movw	r3, #820	; 0x334
    1ac2:	f2c1 0300 	movt	r3, #4096	; 0x1000
    1ac6:	889a      	ldrh	r2, [r3, #4]
    1ac8:	88d8      	ldrh	r0, [r3, #6]
    1aca:	f012 0f7f 	tst.w	r2, #127	; 0x7f
    1ace:	bf0c      	ite	eq
    1ad0:	2201      	moveq	r2, #1
    1ad2:	2200      	movne	r2, #0
    1ad4:	f000 0030 	and.w	r0, r0, #48	; 0x30
    1ad8:	2800      	cmp	r0, #0
    1ada:	bf14      	ite	ne
    1adc:	2000      	movne	r0, #0
    1ade:	f002 0001 	andeq.w	r0, r2, #1
    1ae2:	781b      	ldrb	r3, [r3, #0]
    1ae4:	2b00      	cmp	r3, #0
    1ae6:	bf14      	ite	ne
    1ae8:	2000      	movne	r0, #0
    1aea:	f000 0001 	andeq.w	r0, r0, #1
    1aee:	b900      	cbnz	r0, 1af2 <HalMIIPinCtrlRtl8195A+0x3a>
    1af0:	bd10      	pop	{r4, pc}
    1af2:	2000      	movs	r0, #0
    1af4:	21ff      	movs	r1, #255	; 0xff
    1af6:	f7ff f8cf 	bl	c98 <GPIOCtrl.part.0>
    1afa:	2002      	movs	r0, #2
    1afc:	217f      	movs	r1, #127	; 0x7f
    1afe:	f7ff f8cb 	bl	c98 <GPIOCtrl.part.0>
    1b02:	2003      	movs	r0, #3
    1b04:	2130      	movs	r1, #48	; 0x30
    1b06:	f7ff f8c7 	bl	c98 <GPIOCtrl.part.0>
    1b0a:	f44f 7328 	mov.w	r3, #672	; 0x2a0
    1b0e:	f2c4 0300 	movt	r3, #16384	; 0x4000
    1b12:	681a      	ldr	r2, [r3, #0]
    1b14:	2001      	movs	r0, #1
    1b16:	f042 7280 	orr.w	r2, r2, #16777216	; 0x1000000
    1b1a:	601a      	str	r2, [r3, #0]
    1b1c:	bd10      	pop	{r4, pc}
    1b1e:	4608      	mov	r0, r1
    1b20:	4622      	mov	r2, r4
    1b22:	21ff      	movs	r1, #255	; 0xff
    1b24:	f7ff f8ce 	bl	cc4 <GPIOCtrl>
    1b28:	4622      	mov	r2, r4
    1b2a:	2002      	movs	r0, #2
    1b2c:	217f      	movs	r1, #127	; 0x7f
    1b2e:	f7ff f8c9 	bl	cc4 <GPIOCtrl>
    1b32:	4622      	mov	r2, r4
    1b34:	2003      	movs	r0, #3
    1b36:	2130      	movs	r1, #48	; 0x30
    1b38:	f7ff f8c4 	bl	cc4 <GPIOCtrl>
    1b3c:	f44f 7328 	mov.w	r3, #672	; 0x2a0
    1b40:	f2c4 0300 	movt	r3, #16384	; 0x4000
    1b44:	681a      	ldr	r2, [r3, #0]
    1b46:	2001      	movs	r0, #1
    1b48:	f022 7280 	bic.w	r2, r2, #16777216	; 0x1000000
    1b4c:	601a      	str	r2, [r3, #0]
    1b4e:	bd10      	pop	{r4, pc}

00001b50 <HalWLLEDPinCtrlRtl8195A>:
    1b50:	2801      	cmp	r0, #1
    1b52:	b510      	push	{r4, lr}
    1b54:	460a      	mov	r2, r1
    1b56:	4604      	mov	r4, r0
    1b58:	d039      	beq.n	1bce <HalWLLEDPinCtrlRtl8195A+0x7e>
    1b5a:	d31b      	bcc.n	1b94 <HalWLLEDPinCtrlRtl8195A+0x44>
    1b5c:	2802      	cmp	r0, #2
    1b5e:	d00e      	beq.n	1b7e <HalWLLEDPinCtrlRtl8195A+0x2e>
    1b60:	b9b1      	cbnz	r1, 1b90 <HalWLLEDPinCtrlRtl8195A+0x40>
    1b62:	f44f 7329 	mov.w	r3, #676	; 0x2a4
    1b66:	f2c4 0300 	movt	r3, #16384	; 0x4000
    1b6a:	681a      	ldr	r2, [r3, #0]
    1b6c:	2001      	movs	r0, #1
    1b6e:	f022 0206 	bic.w	r2, r2, #6
    1b72:	601a      	str	r2, [r3, #0]
    1b74:	681a      	ldr	r2, [r3, #0]
    1b76:	f022 0201 	bic.w	r2, r2, #1
    1b7a:	601a      	str	r2, [r3, #0]
    1b7c:	bd10      	pop	{r4, pc}
    1b7e:	2900      	cmp	r1, #0
    1b80:	d036      	beq.n	1bf0 <HalWLLEDPinCtrlRtl8195A+0xa0>
    1b82:	f240 3334 	movw	r3, #820	; 0x334
    1b86:	f2c1 0300 	movt	r3, #4096	; 0x1000
    1b8a:	885b      	ldrh	r3, [r3, #2]
    1b8c:	079b      	lsls	r3, r3, #30
    1b8e:	d538      	bpl.n	1c02 <HalWLLEDPinCtrlRtl8195A+0xb2>
    1b90:	2000      	movs	r0, #0
    1b92:	bd10      	pop	{r4, pc}
    1b94:	b339      	cbz	r1, 1be6 <HalWLLEDPinCtrlRtl8195A+0x96>
    1b96:	f240 3334 	movw	r3, #820	; 0x334
    1b9a:	f2c1 0300 	movt	r3, #4096	; 0x1000
    1b9e:	885b      	ldrh	r3, [r3, #2]
    1ba0:	0698      	lsls	r0, r3, #26
    1ba2:	d4f5      	bmi.n	1b90 <HalWLLEDPinCtrlRtl8195A+0x40>
    1ba4:	2001      	movs	r0, #1
    1ba6:	2120      	movs	r1, #32
    1ba8:	f7ff f88c 	bl	cc4 <GPIOCtrl>
    1bac:	f44f 7329 	mov.w	r3, #676	; 0x2a4
    1bb0:	f2c4 0300 	movt	r3, #16384	; 0x4000
    1bb4:	681a      	ldr	r2, [r3, #0]
    1bb6:	f004 0403 	and.w	r4, r4, #3
    1bba:	f022 0206 	bic.w	r2, r2, #6
    1bbe:	ea42 0444 	orr.w	r4, r2, r4, lsl #1
    1bc2:	601c      	str	r4, [r3, #0]
    1bc4:	681a      	ldr	r2, [r3, #0]
    1bc6:	2001      	movs	r0, #1
    1bc8:	4302      	orrs	r2, r0
    1bca:	601a      	str	r2, [r3, #0]
    1bcc:	bd10      	pop	{r4, pc}
    1bce:	b1a1      	cbz	r1, 1bfa <HalWLLEDPinCtrlRtl8195A+0xaa>
    1bd0:	f240 3334 	movw	r3, #820	; 0x334
    1bd4:	f2c1 0300 	movt	r3, #4096	; 0x1000
    1bd8:	885b      	ldrh	r3, [r3, #2]
    1bda:	06d9      	lsls	r1, r3, #27
    1bdc:	d4d8      	bmi.n	1b90 <HalWLLEDPinCtrlRtl8195A+0x40>
    1bde:	2110      	movs	r1, #16
    1be0:	f7ff f870 	bl	cc4 <GPIOCtrl>
    1be4:	e7e2      	b.n	1bac <HalWLLEDPinCtrlRtl8195A+0x5c>
    1be6:	2001      	movs	r0, #1
    1be8:	2120      	movs	r1, #32
    1bea:	f7ff f86b 	bl	cc4 <GPIOCtrl>
    1bee:	e7b8      	b.n	1b62 <HalWLLEDPinCtrlRtl8195A+0x12>
    1bf0:	4601      	mov	r1, r0
    1bf2:	2001      	movs	r0, #1
    1bf4:	f7ff f866 	bl	cc4 <GPIOCtrl>
    1bf8:	e7b3      	b.n	1b62 <HalWLLEDPinCtrlRtl8195A+0x12>
    1bfa:	2110      	movs	r1, #16
    1bfc:	f7ff f862 	bl	cc4 <GPIOCtrl>
    1c00:	e7af      	b.n	1b62 <HalWLLEDPinCtrlRtl8195A+0x12>
    1c02:	2001      	movs	r0, #1
    1c04:	4621      	mov	r1, r4
    1c06:	f7ff f85d 	bl	cc4 <GPIOCtrl>
    1c0a:	e7cf      	b.n	1bac <HalWLLEDPinCtrlRtl8195A+0x5c>

00001c0c <HalWLANT0PinCtrlRtl8195A>:
    1c0c:	b508      	push	{r3, lr}
    1c0e:	b1b9      	cbz	r1, 1c40 <HalWLANT0PinCtrlRtl8195A+0x34>
    1c10:	f240 3334 	movw	r3, #820	; 0x334
    1c14:	f2c1 0300 	movt	r3, #4096	; 0x1000
    1c18:	885b      	ldrh	r3, [r3, #2]
    1c1a:	f003 030c 	and.w	r3, r3, #12
    1c1e:	b10b      	cbz	r3, 1c24 <HalWLANT0PinCtrlRtl8195A+0x18>
    1c20:	2000      	movs	r0, #0
    1c22:	bd08      	pop	{r3, pc}
    1c24:	2001      	movs	r0, #1
    1c26:	210c      	movs	r1, #12
    1c28:	f7ff f836 	bl	c98 <GPIOCtrl.part.0>
    1c2c:	f44f 7329 	mov.w	r3, #676	; 0x2a4
    1c30:	f2c4 0300 	movt	r3, #16384	; 0x4000
    1c34:	681a      	ldr	r2, [r3, #0]
    1c36:	2001      	movs	r0, #1
    1c38:	f442 7280 	orr.w	r2, r2, #256	; 0x100
    1c3c:	601a      	str	r2, [r3, #0]
    1c3e:	bd08      	pop	{r3, pc}
    1c40:	460a      	mov	r2, r1
    1c42:	2001      	movs	r0, #1
    1c44:	210c      	movs	r1, #12
    1c46:	f7ff f83d 	bl	cc4 <GPIOCtrl>
    1c4a:	f44f 7329 	mov.w	r3, #676	; 0x2a4
    1c4e:	f2c4 0300 	movt	r3, #16384	; 0x4000
    1c52:	681a      	ldr	r2, [r3, #0]
    1c54:	2001      	movs	r0, #1
    1c56:	f422 7280 	bic.w	r2, r2, #256	; 0x100
    1c5a:	601a      	str	r2, [r3, #0]
    1c5c:	bd08      	pop	{r3, pc}
    1c5e:	bf00      	nop

00001c60 <HalWLANT1PinCtrlRtl8195A>:
    1c60:	b508      	push	{r3, lr}
    1c62:	b1b9      	cbz	r1, 1c94 <HalWLANT1PinCtrlRtl8195A+0x34>
    1c64:	f240 3334 	movw	r3, #820	; 0x334
    1c68:	f2c1 0300 	movt	r3, #4096	; 0x1000
    1c6c:	885b      	ldrh	r3, [r3, #2]
    1c6e:	f003 03c0 	and.w	r3, r3, #192	; 0xc0
    1c72:	b10b      	cbz	r3, 1c78 <HalWLANT1PinCtrlRtl8195A+0x18>
    1c74:	2000      	movs	r0, #0
    1c76:	bd08      	pop	{r3, pc}
    1c78:	2001      	movs	r0, #1
    1c7a:	21c0      	movs	r1, #192	; 0xc0
    1c7c:	f7ff f80c 	bl	c98 <GPIOCtrl.part.0>
    1c80:	f44f 7329 	mov.w	r3, #676	; 0x2a4
    1c84:	f2c4 0300 	movt	r3, #16384	; 0x4000
    1c88:	681a      	ldr	r2, [r3, #0]
    1c8a:	2001      	movs	r0, #1
    1c8c:	f442 7200 	orr.w	r2, r2, #512	; 0x200
    1c90:	601a      	str	r2, [r3, #0]
    1c92:	bd08      	pop	{r3, pc}
    1c94:	460a      	mov	r2, r1
    1c96:	2001      	movs	r0, #1
    1c98:	21c0      	movs	r1, #192	; 0xc0
    1c9a:	f7ff f813 	bl	cc4 <GPIOCtrl>
    1c9e:	f44f 7329 	mov.w	r3, #676	; 0x2a4
    1ca2:	f2c4 0300 	movt	r3, #16384	; 0x4000
    1ca6:	681a      	ldr	r2, [r3, #0]
    1ca8:	2001      	movs	r0, #1
    1caa:	f422 7200 	bic.w	r2, r2, #512	; 0x200
    1cae:	601a      	str	r2, [r3, #0]
    1cb0:	bd08      	pop	{r3, pc}
    1cb2:	bf00      	nop

00001cb4 <HalWLBTCOEXPinCtrlRtl8195A>:
    1cb4:	b508      	push	{r3, lr}
    1cb6:	b1b1      	cbz	r1, 1ce6 <HalWLBTCOEXPinCtrlRtl8195A+0x32>
    1cb8:	f240 3334 	movw	r3, #820	; 0x334
    1cbc:	f2c1 0300 	movt	r3, #4096	; 0x1000
    1cc0:	889b      	ldrh	r3, [r3, #4]
    1cc2:	071b      	lsls	r3, r3, #28
    1cc4:	d001      	beq.n	1cca <HalWLBTCOEXPinCtrlRtl8195A+0x16>
    1cc6:	2000      	movs	r0, #0
    1cc8:	bd08      	pop	{r3, pc}
    1cca:	2002      	movs	r0, #2
    1ccc:	210f      	movs	r1, #15
    1cce:	f7fe ffe3 	bl	c98 <GPIOCtrl.part.0>
    1cd2:	f44f 7329 	mov.w	r3, #676	; 0x2a4
    1cd6:	f2c4 0300 	movt	r3, #16384	; 0x4000
    1cda:	681a      	ldr	r2, [r3, #0]
    1cdc:	2001      	movs	r0, #1
    1cde:	f442 5280 	orr.w	r2, r2, #4096	; 0x1000
    1ce2:	601a      	str	r2, [r3, #0]
    1ce4:	bd08      	pop	{r3, pc}
    1ce6:	460a      	mov	r2, r1
    1ce8:	2002      	movs	r0, #2
    1cea:	210f      	movs	r1, #15
    1cec:	f7fe ffea 	bl	cc4 <GPIOCtrl>
    1cf0:	f44f 7329 	mov.w	r3, #676	; 0x2a4
    1cf4:	f2c4 0300 	movt	r3, #16384	; 0x4000
    1cf8:	681a      	ldr	r2, [r3, #0]
    1cfa:	2001      	movs	r0, #1
    1cfc:	f422 5280 	bic.w	r2, r2, #4096	; 0x1000
    1d00:	601a      	str	r2, [r3, #0]
    1d02:	bd08      	pop	{r3, pc}

00001d04 <HalWLBTCMDPinCtrlRtl8195A>:
    1d04:	b508      	push	{r3, lr}
    1d06:	b1b9      	cbz	r1, 1d38 <HalWLBTCMDPinCtrlRtl8195A+0x34>
    1d08:	f240 3334 	movw	r3, #820	; 0x334
    1d0c:	f2c1 0300 	movt	r3, #4096	; 0x1000
    1d10:	889b      	ldrh	r3, [r3, #4]
    1d12:	f003 0370 	and.w	r3, r3, #112	; 0x70
    1d16:	b10b      	cbz	r3, 1d1c <HalWLBTCMDPinCtrlRtl8195A+0x18>
    1d18:	2000      	movs	r0, #0
    1d1a:	bd08      	pop	{r3, pc}
    1d1c:	2002      	movs	r0, #2
    1d1e:	2170      	movs	r1, #112	; 0x70
    1d20:	f7fe ffba 	bl	c98 <GPIOCtrl.part.0>
    1d24:	f44f 7329 	mov.w	r3, #676	; 0x2a4
    1d28:	f2c4 0300 	movt	r3, #16384	; 0x4000
    1d2c:	681a      	ldr	r2, [r3, #0]
    1d2e:	2001      	movs	r0, #1
    1d30:	f442 5200 	orr.w	r2, r2, #8192	; 0x2000
    1d34:	601a      	str	r2, [r3, #0]
    1d36:	bd08      	pop	{r3, pc}
    1d38:	460a      	mov	r2, r1
    1d3a:	2002      	movs	r0, #2
    1d3c:	2170      	movs	r1, #112	; 0x70
    1d3e:	f7fe ffc1 	bl	cc4 <GPIOCtrl>
    1d42:	f44f 7329 	mov.w	r3, #676	; 0x2a4
    1d46:	f2c4 0300 	movt	r3, #16384	; 0x4000
    1d4a:	681a      	ldr	r2, [r3, #0]
    1d4c:	2001      	movs	r0, #1
    1d4e:	f422 5200 	bic.w	r2, r2, #8192	; 0x2000
    1d52:	601a      	str	r2, [r3, #0]
    1d54:	bd08      	pop	{r3, pc}
    1d56:	bf00      	nop

00001d58 <HalNFCPinCtrlRtl8195A>:
    1d58:	b508      	push	{r3, lr}
    1d5a:	b1b1      	cbz	r1, 1d8a <HalNFCPinCtrlRtl8195A+0x32>
    1d5c:	f240 3334 	movw	r3, #820	; 0x334
    1d60:	f2c1 0300 	movt	r3, #4096	; 0x1000
    1d64:	885b      	ldrh	r3, [r3, #2]
    1d66:	069b      	lsls	r3, r3, #26
    1d68:	d001      	beq.n	1d6e <HalNFCPinCtrlRtl8195A+0x16>
    1d6a:	2000      	movs	r0, #0
    1d6c:	bd08      	pop	{r3, pc}
    1d6e:	2001      	movs	r0, #1
    1d70:	213f      	movs	r1, #63	; 0x3f
    1d72:	f7fe ff91 	bl	c98 <GPIOCtrl.part.0>
    1d76:	f44f 7329 	mov.w	r3, #676	; 0x2a4
    1d7a:	f2c4 0300 	movt	r3, #16384	; 0x4000
    1d7e:	681a      	ldr	r2, [r3, #0]
    1d80:	2001      	movs	r0, #1
    1d82:	f442 3280 	orr.w	r2, r2, #65536	; 0x10000
    1d86:	601a      	str	r2, [r3, #0]
    1d88:	bd08      	pop	{r3, pc}
    1d8a:	460a      	mov	r2, r1
    1d8c:	2001      	movs	r0, #1
    1d8e:	213f      	movs	r1, #63	; 0x3f
    1d90:	f7fe ff98 	bl	cc4 <GPIOCtrl>
    1d94:	f44f 7329 	mov.w	r3, #676	; 0x2a4
    1d98:	f2c4 0300 	movt	r3, #16384	; 0x4000
    1d9c:	681a      	ldr	r2, [r3, #0]
    1d9e:	2001      	movs	r0, #1
    1da0:	f422 3280 	bic.w	r2, r2, #65536	; 0x10000
    1da4:	601a      	str	r2, [r3, #0]
    1da6:	bd08      	pop	{r3, pc}

00001da8 <HalPWM0PinCtrlRtl8195A>:
    1da8:	b538      	push	{r3, r4, r5, lr}
    1daa:	4604      	mov	r4, r0
    1dac:	460d      	mov	r5, r1
    1dae:	2803      	cmp	r0, #3
    1db0:	d84e      	bhi.n	1e50 <HalPWM0PinCtrlRtl8195A+0xa8>
    1db2:	e8df f000 	tbb	[pc, r0]
    1db6:	1c3f      	.short	0x1c3f
    1db8:	020d      	.short	0x020d
    1dba:	2900      	cmp	r1, #0
    1dbc:	d064      	beq.n	1e88 <HalPWM0PinCtrlRtl8195A+0xe0>
    1dbe:	f240 3334 	movw	r3, #820	; 0x334
    1dc2:	f2c1 0300 	movt	r3, #4096	; 0x1000
    1dc6:	891b      	ldrh	r3, [r3, #8]
    1dc8:	07db      	lsls	r3, r3, #31
    1dca:	d569      	bpl.n	1ea0 <HalPWM0PinCtrlRtl8195A+0xf8>
    1dcc:	2000      	movs	r0, #0
    1dce:	bd38      	pop	{r3, r4, r5, pc}
    1dd0:	2900      	cmp	r1, #0
    1dd2:	d053      	beq.n	1e7c <HalPWM0PinCtrlRtl8195A+0xd4>
    1dd4:	f240 3334 	movw	r3, #820	; 0x334
    1dd8:	f2c1 0300 	movt	r3, #4096	; 0x1000
    1ddc:	88db      	ldrh	r3, [r3, #6]
    1dde:	06da      	lsls	r2, r3, #27
    1de0:	d4f4      	bmi.n	1dcc <HalPWM0PinCtrlRtl8195A+0x24>
    1de2:	2003      	movs	r0, #3
    1de4:	2110      	movs	r1, #16
    1de6:	462a      	mov	r2, r5
    1de8:	f7fe ff6c 	bl	cc4 <GPIOCtrl>
    1dec:	e00d      	b.n	1e0a <HalPWM0PinCtrlRtl8195A+0x62>
    1dee:	2900      	cmp	r1, #0
    1df0:	d03e      	beq.n	1e70 <HalPWM0PinCtrlRtl8195A+0xc8>
    1df2:	f240 3334 	movw	r3, #820	; 0x334
    1df6:	f2c1 0300 	movt	r3, #4096	; 0x1000
    1dfa:	889b      	ldrh	r3, [r3, #4]
    1dfc:	07d9      	lsls	r1, r3, #31
    1dfe:	d4e5      	bmi.n	1dcc <HalPWM0PinCtrlRtl8195A+0x24>
    1e00:	2002      	movs	r0, #2
    1e02:	2101      	movs	r1, #1
    1e04:	462a      	mov	r2, r5
    1e06:	f7fe ff5d 	bl	cc4 <GPIOCtrl>
    1e0a:	f44f 732b 	mov.w	r3, #684	; 0x2ac
    1e0e:	f2c4 0300 	movt	r3, #16384	; 0x4000
    1e12:	681a      	ldr	r2, [r3, #0]
    1e14:	f004 0403 	and.w	r4, r4, #3
    1e18:	f022 0206 	bic.w	r2, r2, #6
    1e1c:	ea42 0444 	orr.w	r4, r2, r4, lsl #1
    1e20:	601c      	str	r4, [r3, #0]
    1e22:	681a      	ldr	r2, [r3, #0]
    1e24:	f005 0501 	and.w	r5, r5, #1
    1e28:	f022 0201 	bic.w	r2, r2, #1
    1e2c:	4315      	orrs	r5, r2
    1e2e:	601d      	str	r5, [r3, #0]
    1e30:	2001      	movs	r0, #1
    1e32:	bd38      	pop	{r3, r4, r5, pc}
    1e34:	b371      	cbz	r1, 1e94 <HalPWM0PinCtrlRtl8195A+0xec>
    1e36:	f240 3334 	movw	r3, #820	; 0x334
    1e3a:	f2c1 0300 	movt	r3, #4096	; 0x1000
    1e3e:	885b      	ldrh	r3, [r3, #2]
    1e40:	06d8      	lsls	r0, r3, #27
    1e42:	d4c3      	bmi.n	1dcc <HalPWM0PinCtrlRtl8195A+0x24>
    1e44:	2001      	movs	r0, #1
    1e46:	2110      	movs	r1, #16
    1e48:	462a      	mov	r2, r5
    1e4a:	f7fe ff3b 	bl	cc4 <GPIOCtrl>
    1e4e:	e7dc      	b.n	1e0a <HalPWM0PinCtrlRtl8195A+0x62>
    1e50:	2900      	cmp	r1, #0
    1e52:	d1bb      	bne.n	1dcc <HalPWM0PinCtrlRtl8195A+0x24>
    1e54:	f44f 732b 	mov.w	r3, #684	; 0x2ac
    1e58:	f2c4 0300 	movt	r3, #16384	; 0x4000
    1e5c:	681a      	ldr	r2, [r3, #0]
    1e5e:	2001      	movs	r0, #1
    1e60:	f022 0206 	bic.w	r2, r2, #6
    1e64:	601a      	str	r2, [r3, #0]
    1e66:	681a      	ldr	r2, [r3, #0]
    1e68:	f022 0201 	bic.w	r2, r2, #1
    1e6c:	601a      	str	r2, [r3, #0]
    1e6e:	bd38      	pop	{r3, r4, r5, pc}
    1e70:	460a      	mov	r2, r1
    1e72:	2002      	movs	r0, #2
    1e74:	2101      	movs	r1, #1
    1e76:	f7fe ff25 	bl	cc4 <GPIOCtrl>
    1e7a:	e7eb      	b.n	1e54 <HalPWM0PinCtrlRtl8195A+0xac>
    1e7c:	460a      	mov	r2, r1
    1e7e:	2003      	movs	r0, #3
    1e80:	2110      	movs	r1, #16
    1e82:	f7fe ff1f 	bl	cc4 <GPIOCtrl>
    1e86:	e7e5      	b.n	1e54 <HalPWM0PinCtrlRtl8195A+0xac>
    1e88:	460a      	mov	r2, r1
    1e8a:	2004      	movs	r0, #4
    1e8c:	2101      	movs	r1, #1
    1e8e:	f7fe ff19 	bl	cc4 <GPIOCtrl>
    1e92:	e7df      	b.n	1e54 <HalPWM0PinCtrlRtl8195A+0xac>
    1e94:	460a      	mov	r2, r1
    1e96:	2001      	movs	r0, #1
    1e98:	2110      	movs	r1, #16
    1e9a:	f7fe ff13 	bl	cc4 <GPIOCtrl>
    1e9e:	e7d9      	b.n	1e54 <HalPWM0PinCtrlRtl8195A+0xac>
    1ea0:	2004      	movs	r0, #4
    1ea2:	2101      	movs	r1, #1
    1ea4:	462a      	mov	r2, r5
    1ea6:	f7fe ff0d 	bl	cc4 <GPIOCtrl>
    1eaa:	e7ae      	b.n	1e0a <HalPWM0PinCtrlRtl8195A+0x62>

00001eac <HalPWM1PinCtrlRtl8195A>:
    1eac:	b538      	push	{r3, r4, r5, lr}
    1eae:	4604      	mov	r4, r0
    1eb0:	460d      	mov	r5, r1
    1eb2:	2803      	cmp	r0, #3
    1eb4:	d84f      	bhi.n	1f56 <HalPWM1PinCtrlRtl8195A+0xaa>
    1eb6:	e8df f000 	tbb	[pc, r0]
    1eba:	1c40      	.short	0x1c40
    1ebc:	020d      	.short	0x020d
    1ebe:	2900      	cmp	r1, #0
    1ec0:	d065      	beq.n	1f8e <HalPWM1PinCtrlRtl8195A+0xe2>
    1ec2:	f240 3334 	movw	r3, #820	; 0x334
    1ec6:	f2c1 0300 	movt	r3, #4096	; 0x1000
    1eca:	891b      	ldrh	r3, [r3, #8]
    1ecc:	079b      	lsls	r3, r3, #30
    1ece:	d56a      	bpl.n	1fa6 <HalPWM1PinCtrlRtl8195A+0xfa>
    1ed0:	2000      	movs	r0, #0
    1ed2:	bd38      	pop	{r3, r4, r5, pc}
    1ed4:	2900      	cmp	r1, #0
    1ed6:	d054      	beq.n	1f82 <HalPWM1PinCtrlRtl8195A+0xd6>
    1ed8:	f240 3334 	movw	r3, #820	; 0x334
    1edc:	f2c1 0300 	movt	r3, #4096	; 0x1000
    1ee0:	88db      	ldrh	r3, [r3, #6]
    1ee2:	069a      	lsls	r2, r3, #26
    1ee4:	d4f4      	bmi.n	1ed0 <HalPWM1PinCtrlRtl8195A+0x24>
    1ee6:	2003      	movs	r0, #3
    1ee8:	2120      	movs	r1, #32
    1eea:	462a      	mov	r2, r5
    1eec:	f7fe feea 	bl	cc4 <GPIOCtrl>
    1ef0:	e00d      	b.n	1f0e <HalPWM1PinCtrlRtl8195A+0x62>
    1ef2:	2900      	cmp	r1, #0
    1ef4:	d03f      	beq.n	1f76 <HalPWM1PinCtrlRtl8195A+0xca>
    1ef6:	f240 3334 	movw	r3, #820	; 0x334
    1efa:	f2c1 0300 	movt	r3, #4096	; 0x1000
    1efe:	889b      	ldrh	r3, [r3, #4]
    1f00:	0799      	lsls	r1, r3, #30
    1f02:	d4e5      	bmi.n	1ed0 <HalPWM1PinCtrlRtl8195A+0x24>
    1f04:	2002      	movs	r0, #2
    1f06:	4601      	mov	r1, r0
    1f08:	462a      	mov	r2, r5
    1f0a:	f7fe fedb 	bl	cc4 <GPIOCtrl>
    1f0e:	f44f 732b 	mov.w	r3, #684	; 0x2ac
    1f12:	f2c4 0300 	movt	r3, #16384	; 0x4000
    1f16:	681a      	ldr	r2, [r3, #0]
    1f18:	f004 0403 	and.w	r4, r4, #3
    1f1c:	f022 0260 	bic.w	r2, r2, #96	; 0x60
    1f20:	ea42 1444 	orr.w	r4, r2, r4, lsl #5
    1f24:	601c      	str	r4, [r3, #0]
    1f26:	681a      	ldr	r2, [r3, #0]
    1f28:	426d      	negs	r5, r5
    1f2a:	f022 0210 	bic.w	r2, r2, #16
    1f2e:	f005 0510 	and.w	r5, r5, #16
    1f32:	4315      	orrs	r5, r2
    1f34:	601d      	str	r5, [r3, #0]
    1f36:	2001      	movs	r0, #1
    1f38:	bd38      	pop	{r3, r4, r5, pc}
    1f3a:	b371      	cbz	r1, 1f9a <HalPWM1PinCtrlRtl8195A+0xee>
    1f3c:	f240 3334 	movw	r3, #820	; 0x334
    1f40:	f2c1 0300 	movt	r3, #4096	; 0x1000
    1f44:	885b      	ldrh	r3, [r3, #2]
    1f46:	0698      	lsls	r0, r3, #26
    1f48:	d4c2      	bmi.n	1ed0 <HalPWM1PinCtrlRtl8195A+0x24>
    1f4a:	2001      	movs	r0, #1
    1f4c:	2120      	movs	r1, #32
    1f4e:	462a      	mov	r2, r5
    1f50:	f7fe feb8 	bl	cc4 <GPIOCtrl>
    1f54:	e7db      	b.n	1f0e <HalPWM1PinCtrlRtl8195A+0x62>
    1f56:	2900      	cmp	r1, #0
    1f58:	d1ba      	bne.n	1ed0 <HalPWM1PinCtrlRtl8195A+0x24>
    1f5a:	f44f 732b 	mov.w	r3, #684	; 0x2ac
    1f5e:	f2c4 0300 	movt	r3, #16384	; 0x4000
    1f62:	681a      	ldr	r2, [r3, #0]
    1f64:	2001      	movs	r0, #1
    1f66:	f022 0260 	bic.w	r2, r2, #96	; 0x60
    1f6a:	601a      	str	r2, [r3, #0]
    1f6c:	681a      	ldr	r2, [r3, #0]
    1f6e:	f022 0210 	bic.w	r2, r2, #16
    1f72:	601a      	str	r2, [r3, #0]
    1f74:	bd38      	pop	{r3, r4, r5, pc}
    1f76:	2002      	movs	r0, #2
    1f78:	460a      	mov	r2, r1
    1f7a:	4601      	mov	r1, r0
    1f7c:	f7fe fea2 	bl	cc4 <GPIOCtrl>
    1f80:	e7eb      	b.n	1f5a <HalPWM1PinCtrlRtl8195A+0xae>
    1f82:	460a      	mov	r2, r1
    1f84:	2003      	movs	r0, #3
    1f86:	2120      	movs	r1, #32
    1f88:	f7fe fe9c 	bl	cc4 <GPIOCtrl>
    1f8c:	e7e5      	b.n	1f5a <HalPWM1PinCtrlRtl8195A+0xae>
    1f8e:	460a      	mov	r2, r1
    1f90:	2004      	movs	r0, #4
    1f92:	2102      	movs	r1, #2
    1f94:	f7fe fe96 	bl	cc4 <GPIOCtrl>
    1f98:	e7df      	b.n	1f5a <HalPWM1PinCtrlRtl8195A+0xae>
    1f9a:	460a      	mov	r2, r1
    1f9c:	2001      	movs	r0, #1
    1f9e:	2120      	movs	r1, #32
    1fa0:	f7fe fe90 	bl	cc4 <GPIOCtrl>
    1fa4:	e7d9      	b.n	1f5a <HalPWM1PinCtrlRtl8195A+0xae>
    1fa6:	2004      	movs	r0, #4
    1fa8:	2102      	movs	r1, #2
    1faa:	462a      	mov	r2, r5
    1fac:	f7fe fe8a 	bl	cc4 <GPIOCtrl>
    1fb0:	e7ad      	b.n	1f0e <HalPWM1PinCtrlRtl8195A+0x62>
    1fb2:	bf00      	nop

00001fb4 <HalPWM2PinCtrlRtl8195A>:
    1fb4:	b510      	push	{r4, lr}
    1fb6:	4604      	mov	r4, r0
    1fb8:	2803      	cmp	r0, #3
    1fba:	d84b      	bhi.n	2054 <HalPWM2PinCtrlRtl8195A+0xa0>
    1fbc:	e8df f000 	tbb	[pc, r0]
    1fc0:	020d1c3c 	.word	0x020d1c3c
    1fc4:	2900      	cmp	r1, #0
    1fc6:	d061      	beq.n	208c <HalPWM2PinCtrlRtl8195A+0xd8>
    1fc8:	f240 3334 	movw	r3, #820	; 0x334
    1fcc:	f2c1 0300 	movt	r3, #4096	; 0x1000
    1fd0:	891b      	ldrh	r3, [r3, #8]
    1fd2:	075b      	lsls	r3, r3, #29
    1fd4:	d566      	bpl.n	20a4 <HalPWM2PinCtrlRtl8195A+0xf0>
    1fd6:	2000      	movs	r0, #0
    1fd8:	bd10      	pop	{r4, pc}
    1fda:	2900      	cmp	r1, #0
    1fdc:	d050      	beq.n	2080 <HalPWM2PinCtrlRtl8195A+0xcc>
    1fde:	f240 3334 	movw	r3, #820	; 0x334
    1fe2:	f2c1 0300 	movt	r3, #4096	; 0x1000
    1fe6:	88db      	ldrh	r3, [r3, #6]
    1fe8:	065a      	lsls	r2, r3, #25
    1fea:	d4f4      	bmi.n	1fd6 <HalPWM2PinCtrlRtl8195A+0x22>
    1fec:	460a      	mov	r2, r1
    1fee:	2003      	movs	r0, #3
    1ff0:	2140      	movs	r1, #64	; 0x40
    1ff2:	f7fe fe67 	bl	cc4 <GPIOCtrl>
    1ff6:	e00d      	b.n	2014 <HalPWM2PinCtrlRtl8195A+0x60>
    1ff8:	2900      	cmp	r1, #0
    1ffa:	d03b      	beq.n	2074 <HalPWM2PinCtrlRtl8195A+0xc0>
    1ffc:	f240 3334 	movw	r3, #820	; 0x334
    2000:	f2c1 0300 	movt	r3, #4096	; 0x1000
    2004:	889b      	ldrh	r3, [r3, #4]
    2006:	0758      	lsls	r0, r3, #29
    2008:	d4e5      	bmi.n	1fd6 <HalPWM2PinCtrlRtl8195A+0x22>
    200a:	460a      	mov	r2, r1
    200c:	2002      	movs	r0, #2
    200e:	2104      	movs	r1, #4
    2010:	f7fe fe58 	bl	cc4 <GPIOCtrl>
    2014:	f44f 732b 	mov.w	r3, #684	; 0x2ac
    2018:	f2c4 0300 	movt	r3, #16384	; 0x4000
    201c:	681a      	ldr	r2, [r3, #0]
    201e:	f004 0403 	and.w	r4, r4, #3
    2022:	f422 62c0 	bic.w	r2, r2, #1536	; 0x600
    2026:	ea42 2444 	orr.w	r4, r2, r4, lsl #9
    202a:	601c      	str	r4, [r3, #0]
    202c:	681a      	ldr	r2, [r3, #0]
    202e:	2001      	movs	r0, #1
    2030:	f442 7280 	orr.w	r2, r2, #256	; 0x100
    2034:	601a      	str	r2, [r3, #0]
    2036:	bd10      	pop	{r4, pc}
    2038:	b371      	cbz	r1, 2098 <HalPWM2PinCtrlRtl8195A+0xe4>
    203a:	f240 3334 	movw	r3, #820	; 0x334
    203e:	f2c1 0300 	movt	r3, #4096	; 0x1000
    2042:	885b      	ldrh	r3, [r3, #2]
    2044:	065b      	lsls	r3, r3, #25
    2046:	d4c6      	bmi.n	1fd6 <HalPWM2PinCtrlRtl8195A+0x22>
    2048:	460a      	mov	r2, r1
    204a:	2001      	movs	r0, #1
    204c:	2140      	movs	r1, #64	; 0x40
    204e:	f7fe fe39 	bl	cc4 <GPIOCtrl>
    2052:	e7df      	b.n	2014 <HalPWM2PinCtrlRtl8195A+0x60>
    2054:	2900      	cmp	r1, #0
    2056:	d1be      	bne.n	1fd6 <HalPWM2PinCtrlRtl8195A+0x22>
    2058:	f44f 732b 	mov.w	r3, #684	; 0x2ac
    205c:	f2c4 0300 	movt	r3, #16384	; 0x4000
    2060:	681a      	ldr	r2, [r3, #0]
    2062:	2001      	movs	r0, #1
    2064:	f422 62c0 	bic.w	r2, r2, #1536	; 0x600
    2068:	601a      	str	r2, [r3, #0]
    206a:	681a      	ldr	r2, [r3, #0]
    206c:	f422 7280 	bic.w	r2, r2, #256	; 0x100
    2070:	601a      	str	r2, [r3, #0]
    2072:	bd10      	pop	{r4, pc}
    2074:	460a      	mov	r2, r1
    2076:	2002      	movs	r0, #2
    2078:	2104      	movs	r1, #4
    207a:	f7fe fe23 	bl	cc4 <GPIOCtrl>
    207e:	e7eb      	b.n	2058 <HalPWM2PinCtrlRtl8195A+0xa4>
    2080:	460a      	mov	r2, r1
    2082:	2003      	movs	r0, #3
    2084:	2140      	movs	r1, #64	; 0x40
    2086:	f7fe fe1d 	bl	cc4 <GPIOCtrl>
    208a:	e7e5      	b.n	2058 <HalPWM2PinCtrlRtl8195A+0xa4>
    208c:	2004      	movs	r0, #4
    208e:	460a      	mov	r2, r1
    2090:	4601      	mov	r1, r0
    2092:	f7fe fe17 	bl	cc4 <GPIOCtrl>
    2096:	e7df      	b.n	2058 <HalPWM2PinCtrlRtl8195A+0xa4>
    2098:	460a      	mov	r2, r1
    209a:	2001      	movs	r0, #1
    209c:	2140      	movs	r1, #64	; 0x40
    209e:	f7fe fe11 	bl	cc4 <GPIOCtrl>
    20a2:	e7d9      	b.n	2058 <HalPWM2PinCtrlRtl8195A+0xa4>
    20a4:	2004      	movs	r0, #4
    20a6:	460a      	mov	r2, r1
    20a8:	4601      	mov	r1, r0
    20aa:	f7fe fe0b 	bl	cc4 <GPIOCtrl>
    20ae:	e7b1      	b.n	2014 <HalPWM2PinCtrlRtl8195A+0x60>

000020b0 <HalPWM3PinCtrlRtl8195A>:
    20b0:	b538      	push	{r3, r4, r5, lr}
    20b2:	4604      	mov	r4, r0
    20b4:	460d      	mov	r5, r1
    20b6:	2803      	cmp	r0, #3
    20b8:	d84f      	bhi.n	215a <HalPWM3PinCtrlRtl8195A+0xaa>
    20ba:	e8df f000 	tbb	[pc, r0]
    20be:	1c40      	.short	0x1c40
    20c0:	020d      	.short	0x020d
    20c2:	2900      	cmp	r1, #0
    20c4:	d065      	beq.n	2192 <HalPWM3PinCtrlRtl8195A+0xe2>
    20c6:	f240 3334 	movw	r3, #820	; 0x334
    20ca:	f2c1 0300 	movt	r3, #4096	; 0x1000
    20ce:	891b      	ldrh	r3, [r3, #8]
    20d0:	071b      	lsls	r3, r3, #28
    20d2:	d56a      	bpl.n	21aa <HalPWM3PinCtrlRtl8195A+0xfa>
    20d4:	2000      	movs	r0, #0
    20d6:	bd38      	pop	{r3, r4, r5, pc}
    20d8:	2900      	cmp	r1, #0
    20da:	d054      	beq.n	2186 <HalPWM3PinCtrlRtl8195A+0xd6>
    20dc:	f240 3334 	movw	r3, #820	; 0x334
    20e0:	f2c1 0300 	movt	r3, #4096	; 0x1000
    20e4:	88db      	ldrh	r3, [r3, #6]
    20e6:	061a      	lsls	r2, r3, #24
    20e8:	d4f4      	bmi.n	20d4 <HalPWM3PinCtrlRtl8195A+0x24>
    20ea:	2003      	movs	r0, #3
    20ec:	2180      	movs	r1, #128	; 0x80
    20ee:	462a      	mov	r2, r5
    20f0:	f7fe fde8 	bl	cc4 <GPIOCtrl>
    20f4:	e00d      	b.n	2112 <HalPWM3PinCtrlRtl8195A+0x62>
    20f6:	2900      	cmp	r1, #0
    20f8:	d03f      	beq.n	217a <HalPWM3PinCtrlRtl8195A+0xca>
    20fa:	f240 3334 	movw	r3, #820	; 0x334
    20fe:	f2c1 0300 	movt	r3, #4096	; 0x1000
    2102:	889b      	ldrh	r3, [r3, #4]
    2104:	0719      	lsls	r1, r3, #28
    2106:	d4e5      	bmi.n	20d4 <HalPWM3PinCtrlRtl8195A+0x24>
    2108:	2002      	movs	r0, #2
    210a:	2108      	movs	r1, #8
    210c:	462a      	mov	r2, r5
    210e:	f7fe fdd9 	bl	cc4 <GPIOCtrl>
    2112:	f44f 732b 	mov.w	r3, #684	; 0x2ac
    2116:	f2c4 0300 	movt	r3, #16384	; 0x4000
    211a:	681a      	ldr	r2, [r3, #0]
    211c:	f004 0403 	and.w	r4, r4, #3
    2120:	f422 42c0 	bic.w	r2, r2, #24576	; 0x6000
    2124:	ea42 3444 	orr.w	r4, r2, r4, lsl #13
    2128:	601c      	str	r4, [r3, #0]
    212a:	681a      	ldr	r2, [r3, #0]
    212c:	426d      	negs	r5, r5
    212e:	f422 5280 	bic.w	r2, r2, #4096	; 0x1000
    2132:	f405 5580 	and.w	r5, r5, #4096	; 0x1000
    2136:	4315      	orrs	r5, r2
    2138:	601d      	str	r5, [r3, #0]
    213a:	2001      	movs	r0, #1
    213c:	bd38      	pop	{r3, r4, r5, pc}
    213e:	b371      	cbz	r1, 219e <HalPWM3PinCtrlRtl8195A+0xee>
    2140:	f240 3334 	movw	r3, #820	; 0x334
    2144:	f2c1 0300 	movt	r3, #4096	; 0x1000
    2148:	885b      	ldrh	r3, [r3, #2]
    214a:	0618      	lsls	r0, r3, #24
    214c:	d4c2      	bmi.n	20d4 <HalPWM3PinCtrlRtl8195A+0x24>
    214e:	2001      	movs	r0, #1
    2150:	2180      	movs	r1, #128	; 0x80
    2152:	462a      	mov	r2, r5
    2154:	f7fe fdb6 	bl	cc4 <GPIOCtrl>
    2158:	e7db      	b.n	2112 <HalPWM3PinCtrlRtl8195A+0x62>
    215a:	2900      	cmp	r1, #0
    215c:	d1ba      	bne.n	20d4 <HalPWM3PinCtrlRtl8195A+0x24>
    215e:	f44f 732b 	mov.w	r3, #684	; 0x2ac
    2162:	f2c4 0300 	movt	r3, #16384	; 0x4000
    2166:	681a      	ldr	r2, [r3, #0]
    2168:	2001      	movs	r0, #1
    216a:	f422 42c0 	bic.w	r2, r2, #24576	; 0x6000
    216e:	601a      	str	r2, [r3, #0]
    2170:	681a      	ldr	r2, [r3, #0]
    2172:	f422 5280 	bic.w	r2, r2, #4096	; 0x1000
    2176:	601a      	str	r2, [r3, #0]
    2178:	bd38      	pop	{r3, r4, r5, pc}
    217a:	460a      	mov	r2, r1
    217c:	2002      	movs	r0, #2
    217e:	2108      	movs	r1, #8
    2180:	f7fe fda0 	bl	cc4 <GPIOCtrl>
    2184:	e7eb      	b.n	215e <HalPWM3PinCtrlRtl8195A+0xae>
    2186:	460a      	mov	r2, r1
    2188:	2003      	movs	r0, #3
    218a:	2180      	movs	r1, #128	; 0x80
    218c:	f7fe fd9a 	bl	cc4 <GPIOCtrl>
    2190:	e7e5      	b.n	215e <HalPWM3PinCtrlRtl8195A+0xae>
    2192:	460a      	mov	r2, r1
    2194:	2004      	movs	r0, #4
    2196:	2108      	movs	r1, #8
    2198:	f7fe fd94 	bl	cc4 <GPIOCtrl>
    219c:	e7df      	b.n	215e <HalPWM3PinCtrlRtl8195A+0xae>
    219e:	460a      	mov	r2, r1
    21a0:	2001      	movs	r0, #1
    21a2:	2180      	movs	r1, #128	; 0x80
    21a4:	f7fe fd8e 	bl	cc4 <GPIOCtrl>
    21a8:	e7d9      	b.n	215e <HalPWM3PinCtrlRtl8195A+0xae>
    21aa:	2004      	movs	r0, #4
    21ac:	2108      	movs	r1, #8
    21ae:	462a      	mov	r2, r5
    21b0:	f7fe fd88 	bl	cc4 <GPIOCtrl>
    21b4:	e7ad      	b.n	2112 <HalPWM3PinCtrlRtl8195A+0x62>
    21b6:	bf00      	nop

000021b8 <HalETE0PinCtrlRtl8195A>:
    21b8:	b538      	push	{r3, r4, r5, lr}
    21ba:	4604      	mov	r4, r0
    21bc:	460d      	mov	r5, r1
    21be:	2803      	cmp	r0, #3
    21c0:	d84f      	bhi.n	2262 <HalETE0PinCtrlRtl8195A+0xaa>
    21c2:	e8df f000 	tbb	[pc, r0]
    21c6:	1c40      	.short	0x1c40
    21c8:	020d      	.short	0x020d
    21ca:	2900      	cmp	r1, #0
    21cc:	d065      	beq.n	229a <HalETE0PinCtrlRtl8195A+0xe2>
    21ce:	f240 3334 	movw	r3, #820	; 0x334
    21d2:	f2c1 0300 	movt	r3, #4096	; 0x1000
    21d6:	89db      	ldrh	r3, [r3, #14]
    21d8:	07db      	lsls	r3, r3, #31
    21da:	d56a      	bpl.n	22b2 <HalETE0PinCtrlRtl8195A+0xfa>
    21dc:	2000      	movs	r0, #0
    21de:	bd38      	pop	{r3, r4, r5, pc}
    21e0:	2900      	cmp	r1, #0
    21e2:	d054      	beq.n	228e <HalETE0PinCtrlRtl8195A+0xd6>
    21e4:	f240 3334 	movw	r3, #820	; 0x334
    21e8:	f2c1 0300 	movt	r3, #4096	; 0x1000
    21ec:	88db      	ldrh	r3, [r3, #6]
    21ee:	06da      	lsls	r2, r3, #27
    21f0:	d4f4      	bmi.n	21dc <HalETE0PinCtrlRtl8195A+0x24>
    21f2:	2003      	movs	r0, #3
    21f4:	2110      	movs	r1, #16
    21f6:	462a      	mov	r2, r5
    21f8:	f7fe fd64 	bl	cc4 <GPIOCtrl>
    21fc:	e00d      	b.n	221a <HalETE0PinCtrlRtl8195A+0x62>
    21fe:	2900      	cmp	r1, #0
    2200:	d03f      	beq.n	2282 <HalETE0PinCtrlRtl8195A+0xca>
    2202:	f240 3334 	movw	r3, #820	; 0x334
    2206:	f2c1 0300 	movt	r3, #4096	; 0x1000
    220a:	889b      	ldrh	r3, [r3, #4]
    220c:	07d9      	lsls	r1, r3, #31
    220e:	d4e5      	bmi.n	21dc <HalETE0PinCtrlRtl8195A+0x24>
    2210:	2002      	movs	r0, #2
    2212:	2101      	movs	r1, #1
    2214:	462a      	mov	r2, r5
    2216:	f7fe fd55 	bl	cc4 <GPIOCtrl>
    221a:	f44f 732b 	mov.w	r3, #684	; 0x2ac
    221e:	f2c4 0300 	movt	r3, #16384	; 0x4000
    2222:	681a      	ldr	r2, [r3, #0]
    2224:	f004 0403 	and.w	r4, r4, #3
    2228:	f422 22c0 	bic.w	r2, r2, #393216	; 0x60000
    222c:	ea42 4444 	orr.w	r4, r2, r4, lsl #17
    2230:	601c      	str	r4, [r3, #0]
    2232:	681a      	ldr	r2, [r3, #0]
    2234:	426d      	negs	r5, r5
    2236:	f422 3280 	bic.w	r2, r2, #65536	; 0x10000
    223a:	f405 3580 	and.w	r5, r5, #65536	; 0x10000
    223e:	4315      	orrs	r5, r2
    2240:	601d      	str	r5, [r3, #0]
    2242:	2001      	movs	r0, #1
    2244:	bd38      	pop	{r3, r4, r5, pc}
    2246:	b371      	cbz	r1, 22a6 <HalETE0PinCtrlRtl8195A+0xee>
    2248:	f240 3334 	movw	r3, #820	; 0x334
    224c:	f2c1 0300 	movt	r3, #4096	; 0x1000
    2250:	885b      	ldrh	r3, [r3, #2]
    2252:	07d8      	lsls	r0, r3, #31
    2254:	d4c2      	bmi.n	21dc <HalETE0PinCtrlRtl8195A+0x24>
    2256:	2001      	movs	r0, #1
    2258:	4601      	mov	r1, r0
    225a:	462a      	mov	r2, r5
    225c:	f7fe fd32 	bl	cc4 <GPIOCtrl>
    2260:	e7db      	b.n	221a <HalETE0PinCtrlRtl8195A+0x62>
    2262:	2900      	cmp	r1, #0
    2264:	d1ba      	bne.n	21dc <HalETE0PinCtrlRtl8195A+0x24>
    2266:	f44f 732b 	mov.w	r3, #684	; 0x2ac
    226a:	f2c4 0300 	movt	r3, #16384	; 0x4000
    226e:	681a      	ldr	r2, [r3, #0]
    2270:	2001      	movs	r0, #1
    2272:	f422 22c0 	bic.w	r2, r2, #393216	; 0x60000
    2276:	601a      	str	r2, [r3, #0]
    2278:	681a      	ldr	r2, [r3, #0]
    227a:	f422 3280 	bic.w	r2, r2, #65536	; 0x10000
    227e:	601a      	str	r2, [r3, #0]
    2280:	bd38      	pop	{r3, r4, r5, pc}
    2282:	460a      	mov	r2, r1
    2284:	2002      	movs	r0, #2
    2286:	2101      	movs	r1, #1
    2288:	f7fe fd1c 	bl	cc4 <GPIOCtrl>
    228c:	e7eb      	b.n	2266 <HalETE0PinCtrlRtl8195A+0xae>
    228e:	460a      	mov	r2, r1
    2290:	2003      	movs	r0, #3
    2292:	2110      	movs	r1, #16
    2294:	f7fe fd16 	bl	cc4 <GPIOCtrl>
    2298:	e7e5      	b.n	2266 <HalETE0PinCtrlRtl8195A+0xae>
    229a:	460a      	mov	r2, r1
    229c:	2007      	movs	r0, #7
    229e:	2101      	movs	r1, #1
    22a0:	f7fe fd10 	bl	cc4 <GPIOCtrl>
    22a4:	e7df      	b.n	2266 <HalETE0PinCtrlRtl8195A+0xae>
    22a6:	2001      	movs	r0, #1
    22a8:	460a      	mov	r2, r1
    22aa:	4601      	mov	r1, r0
    22ac:	f7fe fd0a 	bl	cc4 <GPIOCtrl>
    22b0:	e7d9      	b.n	2266 <HalETE0PinCtrlRtl8195A+0xae>
    22b2:	2007      	movs	r0, #7
    22b4:	2101      	movs	r1, #1
    22b6:	462a      	mov	r2, r5
    22b8:	f7fe fd04 	bl	cc4 <GPIOCtrl>
    22bc:	e7ad      	b.n	221a <HalETE0PinCtrlRtl8195A+0x62>
    22be:	bf00      	nop

000022c0 <HalETE1PinCtrlRtl8195A>:
    22c0:	b538      	push	{r3, r4, r5, lr}
    22c2:	4604      	mov	r4, r0
    22c4:	460d      	mov	r5, r1
    22c6:	2803      	cmp	r0, #3
    22c8:	d84f      	bhi.n	236a <HalETE1PinCtrlRtl8195A+0xaa>
    22ca:	e8df f000 	tbb	[pc, r0]
    22ce:	1c40      	.short	0x1c40
    22d0:	020d      	.short	0x020d
    22d2:	2900      	cmp	r1, #0
    22d4:	d065      	beq.n	23a2 <HalETE1PinCtrlRtl8195A+0xe2>
    22d6:	f240 3334 	movw	r3, #820	; 0x334
    22da:	f2c1 0300 	movt	r3, #4096	; 0x1000
    22de:	89db      	ldrh	r3, [r3, #14]
    22e0:	079b      	lsls	r3, r3, #30
    22e2:	d56a      	bpl.n	23ba <HalETE1PinCtrlRtl8195A+0xfa>
    22e4:	2000      	movs	r0, #0
    22e6:	bd38      	pop	{r3, r4, r5, pc}
    22e8:	2900      	cmp	r1, #0
    22ea:	d054      	beq.n	2396 <HalETE1PinCtrlRtl8195A+0xd6>
    22ec:	f240 3334 	movw	r3, #820	; 0x334
    22f0:	f2c1 0300 	movt	r3, #4096	; 0x1000
    22f4:	88db      	ldrh	r3, [r3, #6]
    22f6:	069a      	lsls	r2, r3, #26
    22f8:	d4f4      	bmi.n	22e4 <HalETE1PinCtrlRtl8195A+0x24>
    22fa:	2003      	movs	r0, #3
    22fc:	2120      	movs	r1, #32
    22fe:	462a      	mov	r2, r5
    2300:	f7fe fce0 	bl	cc4 <GPIOCtrl>
    2304:	e00d      	b.n	2322 <HalETE1PinCtrlRtl8195A+0x62>
    2306:	2900      	cmp	r1, #0
    2308:	d03f      	beq.n	238a <HalETE1PinCtrlRtl8195A+0xca>
    230a:	f240 3334 	movw	r3, #820	; 0x334
    230e:	f2c1 0300 	movt	r3, #4096	; 0x1000
    2312:	889b      	ldrh	r3, [r3, #4]
    2314:	0799      	lsls	r1, r3, #30
    2316:	d4e5      	bmi.n	22e4 <HalETE1PinCtrlRtl8195A+0x24>
    2318:	2002      	movs	r0, #2
    231a:	4601      	mov	r1, r0
    231c:	462a      	mov	r2, r5
    231e:	f7fe fcd1 	bl	cc4 <GPIOCtrl>
    2322:	f44f 732b 	mov.w	r3, #684	; 0x2ac
    2326:	f2c4 0300 	movt	r3, #16384	; 0x4000
    232a:	681a      	ldr	r2, [r3, #0]
    232c:	f004 0403 	and.w	r4, r4, #3
    2330:	f422 02c0 	bic.w	r2, r2, #6291456	; 0x600000
    2334:	ea42 5444 	orr.w	r4, r2, r4, lsl #21
    2338:	601c      	str	r4, [r3, #0]
    233a:	681a      	ldr	r2, [r3, #0]
    233c:	426d      	negs	r5, r5
    233e:	f422 1280 	bic.w	r2, r2, #1048576	; 0x100000
    2342:	f405 1580 	and.w	r5, r5, #1048576	; 0x100000
    2346:	4315      	orrs	r5, r2
    2348:	601d      	str	r5, [r3, #0]
    234a:	2001      	movs	r0, #1
    234c:	bd38      	pop	{r3, r4, r5, pc}
    234e:	b371      	cbz	r1, 23ae <HalETE1PinCtrlRtl8195A+0xee>
    2350:	f240 3334 	movw	r3, #820	; 0x334
    2354:	f2c1 0300 	movt	r3, #4096	; 0x1000
    2358:	885b      	ldrh	r3, [r3, #2]
    235a:	0798      	lsls	r0, r3, #30
    235c:	d4c2      	bmi.n	22e4 <HalETE1PinCtrlRtl8195A+0x24>
    235e:	2001      	movs	r0, #1
    2360:	2102      	movs	r1, #2
    2362:	462a      	mov	r2, r5
    2364:	f7fe fcae 	bl	cc4 <GPIOCtrl>
    2368:	e7db      	b.n	2322 <HalETE1PinCtrlRtl8195A+0x62>
    236a:	2900      	cmp	r1, #0
    236c:	d1ba      	bne.n	22e4 <HalETE1PinCtrlRtl8195A+0x24>
    236e:	f44f 732b 	mov.w	r3, #684	; 0x2ac
    2372:	f2c4 0300 	movt	r3, #16384	; 0x4000
    2376:	681a      	ldr	r2, [r3, #0]
    2378:	2001      	movs	r0, #1
    237a:	f422 02c0 	bic.w	r2, r2, #6291456	; 0x600000
    237e:	601a      	str	r2, [r3, #0]
    2380:	681a      	ldr	r2, [r3, #0]
    2382:	f422 1280 	bic.w	r2, r2, #1048576	; 0x100000
    2386:	601a      	str	r2, [r3, #0]
    2388:	bd38      	pop	{r3, r4, r5, pc}
    238a:	2002      	movs	r0, #2
    238c:	460a      	mov	r2, r1
    238e:	4601      	mov	r1, r0
    2390:	f7fe fc98 	bl	cc4 <GPIOCtrl>
    2394:	e7eb      	b.n	236e <HalETE1PinCtrlRtl8195A+0xae>
    2396:	460a      	mov	r2, r1
    2398:	2003      	movs	r0, #3
    239a:	2120      	movs	r1, #32
    239c:	f7fe fc92 	bl	cc4 <GPIOCtrl>
    23a0:	e7e5      	b.n	236e <HalETE1PinCtrlRtl8195A+0xae>
    23a2:	460a      	mov	r2, r1
    23a4:	2007      	movs	r0, #7
    23a6:	2102      	movs	r1, #2
    23a8:	f7fe fc8c 	bl	cc4 <GPIOCtrl>
    23ac:	e7df      	b.n	236e <HalETE1PinCtrlRtl8195A+0xae>
    23ae:	460a      	mov	r2, r1
    23b0:	2001      	movs	r0, #1
    23b2:	2102      	movs	r1, #2
    23b4:	f7fe fc86 	bl	cc4 <GPIOCtrl>
    23b8:	e7d9      	b.n	236e <HalETE1PinCtrlRtl8195A+0xae>
    23ba:	2007      	movs	r0, #7
    23bc:	2102      	movs	r1, #2
    23be:	462a      	mov	r2, r5
    23c0:	f7fe fc80 	bl	cc4 <GPIOCtrl>
    23c4:	e7ad      	b.n	2322 <HalETE1PinCtrlRtl8195A+0x62>
    23c6:	bf00      	nop

000023c8 <HalETE2PinCtrlRtl8195A>:
    23c8:	b538      	push	{r3, r4, r5, lr}
    23ca:	4604      	mov	r4, r0
    23cc:	460d      	mov	r5, r1
    23ce:	2803      	cmp	r0, #3
    23d0:	d84f      	bhi.n	2472 <HalETE2PinCtrlRtl8195A+0xaa>
    23d2:	e8df f000 	tbb	[pc, r0]
    23d6:	1c40      	.short	0x1c40
    23d8:	020d      	.short	0x020d
    23da:	2900      	cmp	r1, #0
    23dc:	d065      	beq.n	24aa <HalETE2PinCtrlRtl8195A+0xe2>
    23de:	f240 3334 	movw	r3, #820	; 0x334
    23e2:	f2c1 0300 	movt	r3, #4096	; 0x1000
    23e6:	89db      	ldrh	r3, [r3, #14]
    23e8:	075b      	lsls	r3, r3, #29
    23ea:	d56a      	bpl.n	24c2 <HalETE2PinCtrlRtl8195A+0xfa>
    23ec:	2000      	movs	r0, #0
    23ee:	bd38      	pop	{r3, r4, r5, pc}
    23f0:	2900      	cmp	r1, #0
    23f2:	d054      	beq.n	249e <HalETE2PinCtrlRtl8195A+0xd6>
    23f4:	f240 3334 	movw	r3, #820	; 0x334
    23f8:	f2c1 0300 	movt	r3, #4096	; 0x1000
    23fc:	88db      	ldrh	r3, [r3, #6]
    23fe:	065a      	lsls	r2, r3, #25
    2400:	d4f4      	bmi.n	23ec <HalETE2PinCtrlRtl8195A+0x24>
    2402:	2003      	movs	r0, #3
    2404:	2140      	movs	r1, #64	; 0x40
    2406:	462a      	mov	r2, r5
    2408:	f7fe fc5c 	bl	cc4 <GPIOCtrl>
    240c:	e00d      	b.n	242a <HalETE2PinCtrlRtl8195A+0x62>
    240e:	2900      	cmp	r1, #0
    2410:	d03f      	beq.n	2492 <HalETE2PinCtrlRtl8195A+0xca>
    2412:	f240 3334 	movw	r3, #820	; 0x334
    2416:	f2c1 0300 	movt	r3, #4096	; 0x1000
    241a:	889b      	ldrh	r3, [r3, #4]
    241c:	0759      	lsls	r1, r3, #29
    241e:	d4e5      	bmi.n	23ec <HalETE2PinCtrlRtl8195A+0x24>
    2420:	2002      	movs	r0, #2
    2422:	2104      	movs	r1, #4
    2424:	462a      	mov	r2, r5
    2426:	f7fe fc4d 	bl	cc4 <GPIOCtrl>
    242a:	f44f 732b 	mov.w	r3, #684	; 0x2ac
    242e:	f2c4 0300 	movt	r3, #16384	; 0x4000
    2432:	681a      	ldr	r2, [r3, #0]
    2434:	f004 0403 	and.w	r4, r4, #3
    2438:	f022 62c0 	bic.w	r2, r2, #100663296	; 0x6000000
    243c:	ea42 6444 	orr.w	r4, r2, r4, lsl #25
    2440:	601c      	str	r4, [r3, #0]
    2442:	681a      	ldr	r2, [r3, #0]
    2444:	426d      	negs	r5, r5
    2446:	f022 7280 	bic.w	r2, r2, #16777216	; 0x1000000
    244a:	f005 7580 	and.w	r5, r5, #16777216	; 0x1000000
    244e:	4315      	orrs	r5, r2
    2450:	601d      	str	r5, [r3, #0]
    2452:	2001      	movs	r0, #1
    2454:	bd38      	pop	{r3, r4, r5, pc}
    2456:	b371      	cbz	r1, 24b6 <HalETE2PinCtrlRtl8195A+0xee>
    2458:	f240 3334 	movw	r3, #820	; 0x334
    245c:	f2c1 0300 	movt	r3, #4096	; 0x1000
    2460:	885b      	ldrh	r3, [r3, #2]
    2462:	0758      	lsls	r0, r3, #29
    2464:	d4c2      	bmi.n	23ec <HalETE2PinCtrlRtl8195A+0x24>
    2466:	2001      	movs	r0, #1
    2468:	2104      	movs	r1, #4
    246a:	462a      	mov	r2, r5
    246c:	f7fe fc2a 	bl	cc4 <GPIOCtrl>
    2470:	e7db      	b.n	242a <HalETE2PinCtrlRtl8195A+0x62>
    2472:	2900      	cmp	r1, #0
    2474:	d1ba      	bne.n	23ec <HalETE2PinCtrlRtl8195A+0x24>
    2476:	f44f 732b 	mov.w	r3, #684	; 0x2ac
    247a:	f2c4 0300 	movt	r3, #16384	; 0x4000
    247e:	681a      	ldr	r2, [r3, #0]
    2480:	2001      	movs	r0, #1
    2482:	f022 62c0 	bic.w	r2, r2, #100663296	; 0x6000000
    2486:	601a      	str	r2, [r3, #0]
    2488:	681a      	ldr	r2, [r3, #0]
    248a:	f022 7280 	bic.w	r2, r2, #16777216	; 0x1000000
    248e:	601a      	str	r2, [r3, #0]
    2490:	bd38      	pop	{r3, r4, r5, pc}
    2492:	460a      	mov	r2, r1
    2494:	2002      	movs	r0, #2
    2496:	2104      	movs	r1, #4
    2498:	f7fe fc14 	bl	cc4 <GPIOCtrl>
    249c:	e7eb      	b.n	2476 <HalETE2PinCtrlRtl8195A+0xae>
    249e:	460a      	mov	r2, r1
    24a0:	2003      	movs	r0, #3
    24a2:	2140      	movs	r1, #64	; 0x40
    24a4:	f7fe fc0e 	bl	cc4 <GPIOCtrl>
    24a8:	e7e5      	b.n	2476 <HalETE2PinCtrlRtl8195A+0xae>
    24aa:	460a      	mov	r2, r1
    24ac:	2007      	movs	r0, #7
    24ae:	2104      	movs	r1, #4
    24b0:	f7fe fc08 	bl	cc4 <GPIOCtrl>
    24b4:	e7df      	b.n	2476 <HalETE2PinCtrlRtl8195A+0xae>
    24b6:	460a      	mov	r2, r1
    24b8:	2001      	movs	r0, #1
    24ba:	2104      	movs	r1, #4
    24bc:	f7fe fc02 	bl	cc4 <GPIOCtrl>
    24c0:	e7d9      	b.n	2476 <HalETE2PinCtrlRtl8195A+0xae>
    24c2:	2007      	movs	r0, #7
    24c4:	2104      	movs	r1, #4
    24c6:	462a      	mov	r2, r5
    24c8:	f7fe fbfc 	bl	cc4 <GPIOCtrl>
    24cc:	e7ad      	b.n	242a <HalETE2PinCtrlRtl8195A+0x62>
    24ce:	bf00      	nop

000024d0 <HalETE3PinCtrlRtl8195A>:
    24d0:	b538      	push	{r3, r4, r5, lr}
    24d2:	4604      	mov	r4, r0
    24d4:	460d      	mov	r5, r1
    24d6:	2803      	cmp	r0, #3
    24d8:	d84f      	bhi.n	257a <HalETE3PinCtrlRtl8195A+0xaa>
    24da:	e8df f000 	tbb	[pc, r0]
    24de:	1c40      	.short	0x1c40
    24e0:	020d      	.short	0x020d
    24e2:	2900      	cmp	r1, #0
    24e4:	d065      	beq.n	25b2 <HalETE3PinCtrlRtl8195A+0xe2>
    24e6:	f240 3334 	movw	r3, #820	; 0x334
    24ea:	f2c1 0300 	movt	r3, #4096	; 0x1000
    24ee:	89db      	ldrh	r3, [r3, #14]
    24f0:	071b      	lsls	r3, r3, #28
    24f2:	d56a      	bpl.n	25ca <HalETE3PinCtrlRtl8195A+0xfa>
    24f4:	2000      	movs	r0, #0
    24f6:	bd38      	pop	{r3, r4, r5, pc}
    24f8:	2900      	cmp	r1, #0
    24fa:	d054      	beq.n	25a6 <HalETE3PinCtrlRtl8195A+0xd6>
    24fc:	f240 3334 	movw	r3, #820	; 0x334
    2500:	f2c1 0300 	movt	r3, #4096	; 0x1000
    2504:	88db      	ldrh	r3, [r3, #6]
    2506:	061a      	lsls	r2, r3, #24
    2508:	d4f4      	bmi.n	24f4 <HalETE3PinCtrlRtl8195A+0x24>
    250a:	2003      	movs	r0, #3
    250c:	2180      	movs	r1, #128	; 0x80
    250e:	462a      	mov	r2, r5
    2510:	f7fe fbd8 	bl	cc4 <GPIOCtrl>
    2514:	e00d      	b.n	2532 <HalETE3PinCtrlRtl8195A+0x62>
    2516:	2900      	cmp	r1, #0
    2518:	d03f      	beq.n	259a <HalETE3PinCtrlRtl8195A+0xca>
    251a:	f240 3334 	movw	r3, #820	; 0x334
    251e:	f2c1 0300 	movt	r3, #4096	; 0x1000
    2522:	889b      	ldrh	r3, [r3, #4]
    2524:	0719      	lsls	r1, r3, #28
    2526:	d4e5      	bmi.n	24f4 <HalETE3PinCtrlRtl8195A+0x24>
    2528:	2002      	movs	r0, #2
    252a:	2108      	movs	r1, #8
    252c:	462a      	mov	r2, r5
    252e:	f7fe fbc9 	bl	cc4 <GPIOCtrl>
    2532:	f44f 732b 	mov.w	r3, #684	; 0x2ac
    2536:	f2c4 0300 	movt	r3, #16384	; 0x4000
    253a:	681a      	ldr	r2, [r3, #0]
    253c:	f004 0403 	and.w	r4, r4, #3
    2540:	f022 42c0 	bic.w	r2, r2, #1610612736	; 0x60000000
    2544:	ea42 7444 	orr.w	r4, r2, r4, lsl #29
    2548:	601c      	str	r4, [r3, #0]
    254a:	681a      	ldr	r2, [r3, #0]
    254c:	426d      	negs	r5, r5
    254e:	f022 5280 	bic.w	r2, r2, #268435456	; 0x10000000
    2552:	f005 5580 	and.w	r5, r5, #268435456	; 0x10000000
    2556:	4315      	orrs	r5, r2
    2558:	601d      	str	r5, [r3, #0]
    255a:	2001      	movs	r0, #1
    255c:	bd38      	pop	{r3, r4, r5, pc}
    255e:	b371      	cbz	r1, 25be <HalETE3PinCtrlRtl8195A+0xee>
    2560:	f240 3334 	movw	r3, #820	; 0x334
    2564:	f2c1 0300 	movt	r3, #4096	; 0x1000
    2568:	885b      	ldrh	r3, [r3, #2]
    256a:	0718      	lsls	r0, r3, #28
    256c:	d4c2      	bmi.n	24f4 <HalETE3PinCtrlRtl8195A+0x24>
    256e:	2001      	movs	r0, #1
    2570:	2108      	movs	r1, #8
    2572:	462a      	mov	r2, r5
    2574:	f7fe fba6 	bl	cc4 <GPIOCtrl>
    2578:	e7db      	b.n	2532 <HalETE3PinCtrlRtl8195A+0x62>
    257a:	2900      	cmp	r1, #0
    257c:	d1ba      	bne.n	24f4 <HalETE3PinCtrlRtl8195A+0x24>
    257e:	f44f 732b 	mov.w	r3, #684	; 0x2ac
    2582:	f2c4 0300 	movt	r3, #16384	; 0x4000
    2586:	681a      	ldr	r2, [r3, #0]
    2588:	2001      	movs	r0, #1
    258a:	f022 42c0 	bic.w	r2, r2, #1610612736	; 0x60000000
    258e:	601a      	str	r2, [r3, #0]
    2590:	681a      	ldr	r2, [r3, #0]
    2592:	f022 5280 	bic.w	r2, r2, #268435456	; 0x10000000
    2596:	601a      	str	r2, [r3, #0]
    2598:	bd38      	pop	{r3, r4, r5, pc}
    259a:	460a      	mov	r2, r1
    259c:	2002      	movs	r0, #2
    259e:	2108      	movs	r1, #8
    25a0:	f7fe fb90 	bl	cc4 <GPIOCtrl>
    25a4:	e7eb      	b.n	257e <HalETE3PinCtrlRtl8195A+0xae>
    25a6:	460a      	mov	r2, r1
    25a8:	2003      	movs	r0, #3
    25aa:	2180      	movs	r1, #128	; 0x80
    25ac:	f7fe fb8a 	bl	cc4 <GPIOCtrl>
    25b0:	e7e5      	b.n	257e <HalETE3PinCtrlRtl8195A+0xae>
    25b2:	460a      	mov	r2, r1
    25b4:	2007      	movs	r0, #7
    25b6:	2108      	movs	r1, #8
    25b8:	f7fe fb84 	bl	cc4 <GPIOCtrl>
    25bc:	e7df      	b.n	257e <HalETE3PinCtrlRtl8195A+0xae>
    25be:	460a      	mov	r2, r1
    25c0:	2001      	movs	r0, #1
    25c2:	2108      	movs	r1, #8
    25c4:	f7fe fb7e 	bl	cc4 <GPIOCtrl>
    25c8:	e7d9      	b.n	257e <HalETE3PinCtrlRtl8195A+0xae>
    25ca:	2007      	movs	r0, #7
    25cc:	2108      	movs	r1, #8
    25ce:	462a      	mov	r2, r5
    25d0:	f7fe fb78 	bl	cc4 <GPIOCtrl>
    25d4:	e7ad      	b.n	2532 <HalETE3PinCtrlRtl8195A+0x62>
    25d6:	bf00      	nop

000025d8 <HalEGTIMPinCtrlRtl8195A>:
    25d8:	b510      	push	{r4, lr}
    25da:	460c      	mov	r4, r1
    25dc:	b389      	cbz	r1, 2642 <HalEGTIMPinCtrlRtl8195A+0x6a>
    25de:	f240 3334 	movw	r3, #820	; 0x334
    25e2:	f2c1 0300 	movt	r3, #4096	; 0x1000
    25e6:	891a      	ldrh	r2, [r3, #8]
    25e8:	7918      	ldrb	r0, [r3, #4]
    25ea:	f3c2 0209 	ubfx	r2, r2, #0, #10
    25ee:	2800      	cmp	r0, #0
    25f0:	bf08      	it	eq
    25f2:	2a00      	cmpeq	r2, #0
    25f4:	8858      	ldrh	r0, [r3, #2]
    25f6:	bf0c      	ite	eq
    25f8:	2201      	moveq	r2, #1
    25fa:	2200      	movne	r2, #0
    25fc:	f080 0020 	eor.w	r0, r0, #32
    2600:	ea12 1050 	ands.w	r0, r2, r0, lsr #5
    2604:	d100      	bne.n	2608 <HalEGTIMPinCtrlRtl8195A+0x30>
    2606:	bd10      	pop	{r4, pc}
    2608:	4622      	mov	r2, r4
    260a:	2001      	movs	r0, #1
    260c:	2120      	movs	r1, #32
    260e:	f7fe fb59 	bl	cc4 <GPIOCtrl>
    2612:	4622      	mov	r2, r4
    2614:	2002      	movs	r0, #2
    2616:	21ff      	movs	r1, #255	; 0xff
    2618:	f7fe fb54 	bl	cc4 <GPIOCtrl>
    261c:	4622      	mov	r2, r4
    261e:	2004      	movs	r0, #4
    2620:	f240 31ff 	movw	r1, #1023	; 0x3ff
    2624:	f7fe fb4e 	bl	cc4 <GPIOCtrl>
    2628:	f44f 735d 	mov.w	r3, #884	; 0x374
    262c:	f2c4 0300 	movt	r3, #16384	; 0x4000
    2630:	681a      	ldr	r2, [r3, #0]
    2632:	f004 0401 	and.w	r4, r4, #1
    2636:	f022 0201 	bic.w	r2, r2, #1
    263a:	4314      	orrs	r4, r2
    263c:	601c      	str	r4, [r3, #0]
    263e:	2001      	movs	r0, #1
    2640:	bd10      	pop	{r4, pc}
    2642:	4622      	mov	r2, r4
    2644:	2001      	movs	r0, #1
    2646:	2120      	movs	r1, #32
    2648:	f7fe fb3c 	bl	cc4 <GPIOCtrl>
    264c:	4622      	mov	r2, r4
    264e:	2002      	movs	r0, #2
    2650:	21ff      	movs	r1, #255	; 0xff
    2652:	f7fe fb37 	bl	cc4 <GPIOCtrl>
    2656:	4622      	mov	r2, r4
    2658:	2004      	movs	r0, #4
    265a:	f240 31ff 	movw	r1, #1023	; 0x3ff
    265e:	f7fe fb31 	bl	cc4 <GPIOCtrl>
    2662:	f44f 735d 	mov.w	r3, #884	; 0x374
    2666:	f2c4 0300 	movt	r3, #16384	; 0x4000
    266a:	681a      	ldr	r2, [r3, #0]
    266c:	2001      	movs	r0, #1
    266e:	f022 0201 	bic.w	r2, r2, #1
    2672:	601a      	str	r2, [r3, #0]
    2674:	bd10      	pop	{r4, pc}
    2676:	bf00      	nop

00002678 <HalSPIFlashPinCtrlRtl8195A>:
    2678:	b538      	push	{r3, r4, r5, lr}
    267a:	4605      	mov	r5, r0
    267c:	460c      	mov	r4, r1
    267e:	b1e0      	cbz	r0, 26ba <HalSPIFlashPinCtrlRtl8195A+0x42>
    2680:	2801      	cmp	r0, #1
    2682:	d10a      	bne.n	269a <HalSPIFlashPinCtrlRtl8195A+0x22>
    2684:	2900      	cmp	r1, #0
    2686:	d046      	beq.n	2716 <HalSPIFlashPinCtrlRtl8195A+0x9e>
    2688:	f240 3334 	movw	r3, #820	; 0x334
    268c:	f2c1 0300 	movt	r3, #4096	; 0x1000
    2690:	889b      	ldrh	r3, [r3, #4]
    2692:	071b      	lsls	r3, r3, #28
    2694:	d033      	beq.n	26fe <HalSPIFlashPinCtrlRtl8195A+0x86>
    2696:	2000      	movs	r0, #0
    2698:	bd38      	pop	{r3, r4, r5, pc}
    269a:	2900      	cmp	r1, #0
    269c:	d1fb      	bne.n	2696 <HalSPIFlashPinCtrlRtl8195A+0x1e>
    269e:	f44f 7330 	mov.w	r3, #704	; 0x2c0
    26a2:	f2c4 0300 	movt	r3, #16384	; 0x4000
    26a6:	681a      	ldr	r2, [r3, #0]
    26a8:	2001      	movs	r0, #1
    26aa:	f022 0206 	bic.w	r2, r2, #6
    26ae:	601a      	str	r2, [r3, #0]
    26b0:	681a      	ldr	r2, [r3, #0]
    26b2:	f022 0201 	bic.w	r2, r2, #1
    26b6:	601a      	str	r2, [r3, #0]
    26b8:	bd38      	pop	{r3, r4, r5, pc}
    26ba:	b331      	cbz	r1, 270a <HalSPIFlashPinCtrlRtl8195A+0x92>
    26bc:	f240 3334 	movw	r3, #820	; 0x334
    26c0:	f2c1 0300 	movt	r3, #4096	; 0x1000
    26c4:	895b      	ldrh	r3, [r3, #10]
    26c6:	069a      	lsls	r2, r3, #26
    26c8:	d1e5      	bne.n	2696 <HalSPIFlashPinCtrlRtl8195A+0x1e>
    26ca:	2005      	movs	r0, #5
    26cc:	213f      	movs	r1, #63	; 0x3f
    26ce:	4622      	mov	r2, r4
    26d0:	f7fe faf8 	bl	cc4 <GPIOCtrl>
    26d4:	f44f 7330 	mov.w	r3, #704	; 0x2c0
    26d8:	f2c4 0300 	movt	r3, #16384	; 0x4000
    26dc:	681a      	ldr	r2, [r3, #0]
    26de:	f005 0503 	and.w	r5, r5, #3
    26e2:	f022 0206 	bic.w	r2, r2, #6
    26e6:	ea42 0545 	orr.w	r5, r2, r5, lsl #1
    26ea:	601d      	str	r5, [r3, #0]
    26ec:	681a      	ldr	r2, [r3, #0]
    26ee:	f004 0401 	and.w	r4, r4, #1
    26f2:	f022 0201 	bic.w	r2, r2, #1
    26f6:	4314      	orrs	r4, r2
    26f8:	601c      	str	r4, [r3, #0]
    26fa:	2001      	movs	r0, #1
    26fc:	bd38      	pop	{r3, r4, r5, pc}
    26fe:	2002      	movs	r0, #2
    2700:	210f      	movs	r1, #15
    2702:	4622      	mov	r2, r4
    2704:	f7fe fade 	bl	cc4 <GPIOCtrl>
    2708:	e7e4      	b.n	26d4 <HalSPIFlashPinCtrlRtl8195A+0x5c>
    270a:	460a      	mov	r2, r1
    270c:	2005      	movs	r0, #5
    270e:	213f      	movs	r1, #63	; 0x3f
    2710:	f7fe fad8 	bl	cc4 <GPIOCtrl>
    2714:	e7c3      	b.n	269e <HalSPIFlashPinCtrlRtl8195A+0x26>
    2716:	460a      	mov	r2, r1
    2718:	2002      	movs	r0, #2
    271a:	210f      	movs	r1, #15
    271c:	f7fe fad2 	bl	cc4 <GPIOCtrl>
    2720:	e7bd      	b.n	269e <HalSPIFlashPinCtrlRtl8195A+0x26>
    2722:	bf00      	nop

00002724 <HalSDRPinCtrlRtl8195A>:
    2724:	b510      	push	{r4, lr}
    2726:	460c      	mov	r4, r1
    2728:	2900      	cmp	r1, #0
    272a:	d04b      	beq.n	27c4 <HalSDRPinCtrlRtl8195A+0xa0>
    272c:	f240 3334 	movw	r3, #820	; 0x334
    2730:	f2c1 0300 	movt	r3, #4096	; 0x1000
    2734:	8a59      	ldrh	r1, [r3, #18]
    2736:	8a9a      	ldrh	r2, [r3, #20]
    2738:	f011 0f7f 	tst.w	r1, #127	; 0x7f
    273c:	bf0c      	ite	eq
    273e:	2001      	moveq	r0, #1
    2740:	2000      	movne	r0, #0
    2742:	7c19      	ldrb	r1, [r3, #16]
    2744:	f012 0f7f 	tst.w	r2, #127	; 0x7f
    2748:	f000 0001 	and.w	r0, r0, #1
    274c:	bf18      	it	ne
    274e:	2000      	movne	r0, #0
    2750:	2900      	cmp	r1, #0
    2752:	bf14      	ite	ne
    2754:	2000      	movne	r0, #0
    2756:	f000 0001 	andeq.w	r0, r0, #1
    275a:	7b9a      	ldrb	r2, [r3, #14]
    275c:	7b1b      	ldrb	r3, [r3, #12]
    275e:	2a00      	cmp	r2, #0
    2760:	bf14      	ite	ne
    2762:	2000      	movne	r0, #0
    2764:	f000 0001 	andeq.w	r0, r0, #1
    2768:	2b00      	cmp	r3, #0
    276a:	bf14      	ite	ne
    276c:	2000      	movne	r0, #0
    276e:	f000 0001 	andeq.w	r0, r0, #1
    2772:	b900      	cbnz	r0, 2776 <HalSDRPinCtrlRtl8195A+0x52>
    2774:	bd10      	pop	{r4, pc}
    2776:	4622      	mov	r2, r4
    2778:	2006      	movs	r0, #6
    277a:	21ff      	movs	r1, #255	; 0xff
    277c:	f7fe faa2 	bl	cc4 <GPIOCtrl>
    2780:	4622      	mov	r2, r4
    2782:	2007      	movs	r0, #7
    2784:	21ff      	movs	r1, #255	; 0xff
    2786:	f7fe fa9d 	bl	cc4 <GPIOCtrl>
    278a:	4622      	mov	r2, r4
    278c:	2008      	movs	r0, #8
    278e:	21ff      	movs	r1, #255	; 0xff
    2790:	f7fe fa98 	bl	cc4 <GPIOCtrl>
    2794:	4622      	mov	r2, r4
    2796:	2009      	movs	r0, #9
    2798:	217f      	movs	r1, #127	; 0x7f
    279a:	f7fe fa93 	bl	cc4 <GPIOCtrl>
    279e:	4622      	mov	r2, r4
    27a0:	200a      	movs	r0, #10
    27a2:	217f      	movs	r1, #127	; 0x7f
    27a4:	f7fe fa8e 	bl	cc4 <GPIOCtrl>
    27a8:	f44f 7330 	mov.w	r3, #704	; 0x2c0
    27ac:	f2c4 0300 	movt	r3, #16384	; 0x4000
    27b0:	681a      	ldr	r2, [r3, #0]
    27b2:	4264      	negs	r4, r4
    27b4:	f022 0210 	bic.w	r2, r2, #16
    27b8:	f004 0410 	and.w	r4, r4, #16
    27bc:	4314      	orrs	r4, r2
    27be:	601c      	str	r4, [r3, #0]
    27c0:	2001      	movs	r0, #1
    27c2:	bd10      	pop	{r4, pc}
    27c4:	4622      	mov	r2, r4
    27c6:	2006      	movs	r0, #6
    27c8:	21ff      	movs	r1, #255	; 0xff
    27ca:	f7fe fa7b 	bl	cc4 <GPIOCtrl>
    27ce:	4622      	mov	r2, r4
    27d0:	2007      	movs	r0, #7
    27d2:	21ff      	movs	r1, #255	; 0xff
    27d4:	f7fe fa76 	bl	cc4 <GPIOCtrl>
    27d8:	4622      	mov	r2, r4
    27da:	2008      	movs	r0, #8
    27dc:	21ff      	movs	r1, #255	; 0xff
    27de:	f7fe fa71 	bl	cc4 <GPIOCtrl>
    27e2:	4622      	mov	r2, r4
    27e4:	2009      	movs	r0, #9
    27e6:	217f      	movs	r1, #127	; 0x7f
    27e8:	f7fe fa6c 	bl	cc4 <GPIOCtrl>
    27ec:	4622      	mov	r2, r4
    27ee:	200a      	movs	r0, #10
    27f0:	217f      	movs	r1, #127	; 0x7f
    27f2:	f7fe fa67 	bl	cc4 <GPIOCtrl>
    27f6:	f44f 7330 	mov.w	r3, #704	; 0x2c0
    27fa:	f2c4 0300 	movt	r3, #16384	; 0x4000
    27fe:	681a      	ldr	r2, [r3, #0]
    2800:	2001      	movs	r0, #1
    2802:	f022 0210 	bic.w	r2, r2, #16
    2806:	601a      	str	r2, [r3, #0]
    2808:	bd10      	pop	{r4, pc}
    280a:	bf00      	nop

0000280c <HalJTAGPinCtrlRtl8195A>:
    280c:	b508      	push	{r3, lr}
    280e:	b1b9      	cbz	r1, 2840 <HalJTAGPinCtrlRtl8195A+0x34>
    2810:	f240 3334 	movw	r3, #820	; 0x334
    2814:	f2c1 0300 	movt	r3, #4096	; 0x1000
    2818:	891b      	ldrh	r3, [r3, #8]
    281a:	06db      	lsls	r3, r3, #27
    281c:	d001      	beq.n	2822 <HalJTAGPinCtrlRtl8195A+0x16>
    281e:	2000      	movs	r0, #0
    2820:	bd08      	pop	{r3, pc}
    2822:	460a      	mov	r2, r1
    2824:	2004      	movs	r0, #4
    2826:	211f      	movs	r1, #31
    2828:	f7fe fa4c 	bl	cc4 <GPIOCtrl>
    282c:	f44f 7330 	mov.w	r3, #704	; 0x2c0
    2830:	f2c4 0300 	movt	r3, #16384	; 0x4000
    2834:	681a      	ldr	r2, [r3, #0]
    2836:	2001      	movs	r0, #1
    2838:	f442 3280 	orr.w	r2, r2, #65536	; 0x10000
    283c:	601a      	str	r2, [r3, #0]
    283e:	bd08      	pop	{r3, pc}
    2840:	460a      	mov	r2, r1
    2842:	2004      	movs	r0, #4
    2844:	211f      	movs	r1, #31
    2846:	f7fe fa3d 	bl	cc4 <GPIOCtrl>
    284a:	f44f 7330 	mov.w	r3, #704	; 0x2c0
    284e:	f2c4 0300 	movt	r3, #16384	; 0x4000
    2852:	681a      	ldr	r2, [r3, #0]
    2854:	2001      	movs	r0, #1
    2856:	f422 3280 	bic.w	r2, r2, #65536	; 0x10000
    285a:	601a      	str	r2, [r3, #0]
    285c:	bd08      	pop	{r3, pc}
    285e:	bf00      	nop

00002860 <HalTRACEPinCtrlRtl8195A>:
    2860:	b508      	push	{r3, lr}
    2862:	b1c9      	cbz	r1, 2898 <HalTRACEPinCtrlRtl8195A+0x38>
    2864:	f240 3334 	movw	r3, #820	; 0x334
    2868:	f2c1 0300 	movt	r3, #4096	; 0x1000
    286c:	891b      	ldrh	r3, [r3, #8]
    286e:	f403 7378 	and.w	r3, r3, #992	; 0x3e0
    2872:	b10b      	cbz	r3, 2878 <HalTRACEPinCtrlRtl8195A+0x18>
    2874:	2000      	movs	r0, #0
    2876:	bd08      	pop	{r3, pc}
    2878:	460a      	mov	r2, r1
    287a:	2004      	movs	r0, #4
    287c:	f44f 7178 	mov.w	r1, #992	; 0x3e0
    2880:	f7fe fa20 	bl	cc4 <GPIOCtrl>
    2884:	f44f 7330 	mov.w	r3, #704	; 0x2c0
    2888:	f2c4 0300 	movt	r3, #16384	; 0x4000
    288c:	681a      	ldr	r2, [r3, #0]
    288e:	2001      	movs	r0, #1
    2890:	f442 3200 	orr.w	r2, r2, #131072	; 0x20000
    2894:	601a      	str	r2, [r3, #0]
    2896:	bd08      	pop	{r3, pc}
    2898:	460a      	mov	r2, r1
    289a:	2004      	movs	r0, #4
    289c:	f44f 7178 	mov.w	r1, #992	; 0x3e0
    28a0:	f7fe fa10 	bl	cc4 <GPIOCtrl>
    28a4:	f44f 7330 	mov.w	r3, #704	; 0x2c0
    28a8:	f2c4 0300 	movt	r3, #16384	; 0x4000
    28ac:	681a      	ldr	r2, [r3, #0]
    28ae:	2001      	movs	r0, #1
    28b0:	f422 3200 	bic.w	r2, r2, #131072	; 0x20000
    28b4:	601a      	str	r2, [r3, #0]
    28b6:	bd08      	pop	{r3, pc}

000028b8 <HalLOGUartPinCtrlRtl8195A>:
    28b8:	b508      	push	{r3, lr}
    28ba:	b1d9      	cbz	r1, 28f4 <HalLOGUartPinCtrlRtl8195A+0x3c>
    28bc:	f240 3334 	movw	r3, #820	; 0x334
    28c0:	f2c1 0300 	movt	r3, #4096	; 0x1000
    28c4:	885b      	ldrh	r3, [r3, #2]
    28c6:	079b      	lsls	r3, r3, #30
    28c8:	d001      	beq.n	28ce <HalLOGUartPinCtrlRtl8195A+0x16>
    28ca:	2000      	movs	r0, #0
    28cc:	bd08      	pop	{r3, pc}
    28ce:	460a      	mov	r2, r1
    28d0:	2001      	movs	r0, #1
    28d2:	2103      	movs	r1, #3
    28d4:	f7fe f9f6 	bl	cc4 <GPIOCtrl>
    28d8:	f44f 7330 	mov.w	r3, #704	; 0x2c0
    28dc:	f2c4 0300 	movt	r3, #16384	; 0x4000
    28e0:	681a      	ldr	r2, [r3, #0]
    28e2:	2001      	movs	r0, #1
    28e4:	f422 1200 	bic.w	r2, r2, #2097152	; 0x200000
    28e8:	601a      	str	r2, [r3, #0]
    28ea:	681a      	ldr	r2, [r3, #0]
    28ec:	f442 1280 	orr.w	r2, r2, #1048576	; 0x100000
    28f0:	601a      	str	r2, [r3, #0]
    28f2:	bd08      	pop	{r3, pc}
    28f4:	460a      	mov	r2, r1
    28f6:	2001      	movs	r0, #1
    28f8:	2103      	movs	r1, #3
    28fa:	f7fe f9e3 	bl	cc4 <GPIOCtrl>
    28fe:	f44f 7330 	mov.w	r3, #704	; 0x2c0
    2902:	f2c4 0300 	movt	r3, #16384	; 0x4000
    2906:	681a      	ldr	r2, [r3, #0]
    2908:	2001      	movs	r0, #1
    290a:	f422 1200 	bic.w	r2, r2, #2097152	; 0x200000
    290e:	601a      	str	r2, [r3, #0]
    2910:	681a      	ldr	r2, [r3, #0]
    2912:	f422 1280 	bic.w	r2, r2, #1048576	; 0x100000
    2916:	601a      	str	r2, [r3, #0]
    2918:	bd08      	pop	{r3, pc}
    291a:	bf00      	nop

0000291c <HalLOGUartIRPinCtrlRtl8195A>:
    291c:	b508      	push	{r3, lr}
    291e:	b1d9      	cbz	r1, 2958 <HalLOGUartIRPinCtrlRtl8195A+0x3c>
    2920:	f240 3334 	movw	r3, #820	; 0x334
    2924:	f2c1 0300 	movt	r3, #4096	; 0x1000
    2928:	885b      	ldrh	r3, [r3, #2]
    292a:	079b      	lsls	r3, r3, #30
    292c:	d001      	beq.n	2932 <HalLOGUartIRPinCtrlRtl8195A+0x16>
    292e:	2000      	movs	r0, #0
    2930:	bd08      	pop	{r3, pc}
    2932:	460a      	mov	r2, r1
    2934:	2001      	movs	r0, #1
    2936:	2103      	movs	r1, #3
    2938:	f7fe f9c4 	bl	cc4 <GPIOCtrl>
    293c:	f44f 7330 	mov.w	r3, #704	; 0x2c0
    2940:	f2c4 0300 	movt	r3, #16384	; 0x4000
    2944:	681a      	ldr	r2, [r3, #0]
    2946:	2001      	movs	r0, #1
    2948:	f442 1280 	orr.w	r2, r2, #1048576	; 0x100000
    294c:	601a      	str	r2, [r3, #0]
    294e:	681a      	ldr	r2, [r3, #0]
    2950:	f442 1200 	orr.w	r2, r2, #2097152	; 0x200000
    2954:	601a      	str	r2, [r3, #0]
    2956:	bd08      	pop	{r3, pc}
    2958:	460a      	mov	r2, r1
    295a:	2001      	movs	r0, #1
    295c:	2103      	movs	r1, #3
    295e:	f7fe f9b1 	bl	cc4 <GPIOCtrl>
    2962:	f44f 7330 	mov.w	r3, #704	; 0x2c0
    2966:	f2c4 0300 	movt	r3, #16384	; 0x4000
    296a:	681a      	ldr	r2, [r3, #0]
    296c:	2001      	movs	r0, #1
    296e:	f422 1280 	bic.w	r2, r2, #1048576	; 0x100000
    2972:	601a      	str	r2, [r3, #0]
    2974:	681a      	ldr	r2, [r3, #0]
    2976:	f422 1200 	bic.w	r2, r2, #2097152	; 0x200000
    297a:	601a      	str	r2, [r3, #0]
    297c:	bd08      	pop	{r3, pc}
    297e:	bf00      	nop

00002980 <HalSICPinCtrlRtl8195A>:
    2980:	b510      	push	{r4, lr}
    2982:	460c      	mov	r4, r1
    2984:	b1d1      	cbz	r1, 29bc <HalSICPinCtrlRtl8195A+0x3c>
    2986:	f240 3334 	movw	r3, #820	; 0x334
    298a:	f2c1 0300 	movt	r3, #4096	; 0x1000
    298e:	889b      	ldrh	r3, [r3, #4]
    2990:	f003 0330 	and.w	r3, r3, #48	; 0x30
    2994:	b10b      	cbz	r3, 299a <HalSICPinCtrlRtl8195A+0x1a>
    2996:	2000      	movs	r0, #0
    2998:	bd10      	pop	{r4, pc}
    299a:	4622      	mov	r2, r4
    299c:	2002      	movs	r0, #2
    299e:	2130      	movs	r1, #48	; 0x30
    29a0:	f7fe f990 	bl	cc4 <GPIOCtrl>
    29a4:	23a4      	movs	r3, #164	; 0xa4
    29a6:	f2c4 0300 	movt	r3, #16384	; 0x4000
    29aa:	681a      	ldr	r2, [r3, #0]
    29ac:	f004 0401 	and.w	r4, r4, #1
    29b0:	f022 0201 	bic.w	r2, r2, #1
    29b4:	4314      	orrs	r4, r2
    29b6:	601c      	str	r4, [r3, #0]
    29b8:	2001      	movs	r0, #1
    29ba:	bd10      	pop	{r4, pc}
    29bc:	460a      	mov	r2, r1
    29be:	2002      	movs	r0, #2
    29c0:	2130      	movs	r1, #48	; 0x30
    29c2:	f7fe f97f 	bl	cc4 <GPIOCtrl>
    29c6:	23a4      	movs	r3, #164	; 0xa4
    29c8:	f2c4 0300 	movt	r3, #16384	; 0x4000
    29cc:	681a      	ldr	r2, [r3, #0]
    29ce:	2001      	movs	r0, #1
    29d0:	f022 0201 	bic.w	r2, r2, #1
    29d4:	601a      	str	r2, [r3, #0]
    29d6:	bd10      	pop	{r4, pc}

000029d8 <HalEEPROMPinCtrlRtl8195A>:
    29d8:	b510      	push	{r4, lr}
    29da:	460c      	mov	r4, r1
    29dc:	b1d1      	cbz	r1, 2a14 <HalEEPROMPinCtrlRtl8195A+0x3c>
    29de:	f240 3334 	movw	r3, #820	; 0x334
    29e2:	f2c1 0300 	movt	r3, #4096	; 0x1000
    29e6:	889b      	ldrh	r3, [r3, #4]
    29e8:	071b      	lsls	r3, r3, #28
    29ea:	d001      	beq.n	29f0 <HalEEPROMPinCtrlRtl8195A+0x18>
    29ec:	2000      	movs	r0, #0
    29ee:	bd10      	pop	{r4, pc}
    29f0:	4622      	mov	r2, r4
    29f2:	2002      	movs	r0, #2
    29f4:	210f      	movs	r1, #15
    29f6:	f7fe f965 	bl	cc4 <GPIOCtrl>
    29fa:	23a4      	movs	r3, #164	; 0xa4
    29fc:	f2c4 0300 	movt	r3, #16384	; 0x4000
    2a00:	681a      	ldr	r2, [r3, #0]
    2a02:	4264      	negs	r4, r4
    2a04:	f022 0210 	bic.w	r2, r2, #16
    2a08:	f004 0410 	and.w	r4, r4, #16
    2a0c:	4314      	orrs	r4, r2
    2a0e:	601c      	str	r4, [r3, #0]
    2a10:	2001      	movs	r0, #1
    2a12:	bd10      	pop	{r4, pc}
    2a14:	460a      	mov	r2, r1
    2a16:	2002      	movs	r0, #2
    2a18:	210f      	movs	r1, #15
    2a1a:	f7fe f953 	bl	cc4 <GPIOCtrl>
    2a1e:	23a4      	movs	r3, #164	; 0xa4
    2a20:	f2c4 0300 	movt	r3, #16384	; 0x4000
    2a24:	681a      	ldr	r2, [r3, #0]
    2a26:	2001      	movs	r0, #1
    2a28:	f022 0210 	bic.w	r2, r2, #16
    2a2c:	601a      	str	r2, [r3, #0]
    2a2e:	bd10      	pop	{r4, pc}

00002a30 <HalDEBUGPinCtrlRtl8195A>:
    2a30:	b510      	push	{r4, lr}
    2a32:	460c      	mov	r4, r1
    2a34:	2900      	cmp	r1, #0
    2a36:	d058      	beq.n	2aea <HalDEBUGPinCtrlRtl8195A+0xba>
    2a38:	f240 3334 	movw	r3, #820	; 0x334
    2a3c:	f2c1 0300 	movt	r3, #4096	; 0x1000
    2a40:	891a      	ldrh	r2, [r3, #8]
    2a42:	8959      	ldrh	r1, [r3, #10]
    2a44:	f012 0f3f 	tst.w	r2, #63	; 0x3f
    2a48:	bf0c      	ite	eq
    2a4a:	2201      	moveq	r2, #1
    2a4c:	2200      	movne	r2, #0
    2a4e:	f001 0130 	and.w	r1, r1, #48	; 0x30
    2a52:	2900      	cmp	r1, #0
    2a54:	bf14      	ite	ne
    2a56:	2100      	movne	r1, #0
    2a58:	f002 0101 	andeq.w	r1, r2, #1
    2a5c:	88d8      	ldrh	r0, [r3, #6]
    2a5e:	791a      	ldrb	r2, [r3, #4]
    2a60:	f000 0030 	and.w	r0, r0, #48	; 0x30
    2a64:	2800      	cmp	r0, #0
    2a66:	bf14      	ite	ne
    2a68:	2000      	movne	r0, #0
    2a6a:	f001 0001 	andeq.w	r0, r1, #1
    2a6e:	2a00      	cmp	r2, #0
    2a70:	bf14      	ite	ne
    2a72:	2000      	movne	r0, #0
    2a74:	f000 0001 	andeq.w	r0, r0, #1
    2a78:	885a      	ldrh	r2, [r3, #2]
    2a7a:	781b      	ldrb	r3, [r3, #0]
    2a7c:	f012 0f3f 	tst.w	r2, #63	; 0x3f
    2a80:	f000 0001 	and.w	r0, r0, #1
    2a84:	bf18      	it	ne
    2a86:	2000      	movne	r0, #0
    2a88:	2b00      	cmp	r3, #0
    2a8a:	bf14      	ite	ne
    2a8c:	2000      	movne	r0, #0
    2a8e:	f000 0001 	andeq.w	r0, r0, #1
    2a92:	b900      	cbnz	r0, 2a96 <HalDEBUGPinCtrlRtl8195A+0x66>
    2a94:	bd10      	pop	{r4, pc}
    2a96:	4622      	mov	r2, r4
    2a98:	2000      	movs	r0, #0
    2a9a:	21ff      	movs	r1, #255	; 0xff
    2a9c:	f7fe f912 	bl	cc4 <GPIOCtrl>
    2aa0:	4622      	mov	r2, r4
    2aa2:	2001      	movs	r0, #1
    2aa4:	213f      	movs	r1, #63	; 0x3f
    2aa6:	f7fe f90d 	bl	cc4 <GPIOCtrl>
    2aaa:	4622      	mov	r2, r4
    2aac:	2002      	movs	r0, #2
    2aae:	21ff      	movs	r1, #255	; 0xff
    2ab0:	f7fe f908 	bl	cc4 <GPIOCtrl>
    2ab4:	4622      	mov	r2, r4
    2ab6:	2003      	movs	r0, #3
    2ab8:	2130      	movs	r1, #48	; 0x30
    2aba:	f7fe f903 	bl	cc4 <GPIOCtrl>
    2abe:	4622      	mov	r2, r4
    2ac0:	2004      	movs	r0, #4
    2ac2:	213f      	movs	r1, #63	; 0x3f
    2ac4:	f7fe f8fe 	bl	cc4 <GPIOCtrl>
    2ac8:	4622      	mov	r2, r4
    2aca:	2005      	movs	r0, #5
    2acc:	2130      	movs	r1, #48	; 0x30
    2ace:	f7fe f8f9 	bl	cc4 <GPIOCtrl>
    2ad2:	23a0      	movs	r3, #160	; 0xa0
    2ad4:	f2c4 0300 	movt	r3, #16384	; 0x4000
    2ad8:	681a      	ldr	r2, [r3, #0]
    2ada:	f004 0401 	and.w	r4, r4, #1
    2ade:	f022 0201 	bic.w	r2, r2, #1
    2ae2:	4314      	orrs	r4, r2
    2ae4:	601c      	str	r4, [r3, #0]
    2ae6:	2001      	movs	r0, #1
    2ae8:	bd10      	pop	{r4, pc}
    2aea:	4608      	mov	r0, r1
    2aec:	4622      	mov	r2, r4
    2aee:	21ff      	movs	r1, #255	; 0xff
    2af0:	f7fe f8e8 	bl	cc4 <GPIOCtrl>
    2af4:	4622      	mov	r2, r4
    2af6:	2001      	movs	r0, #1
    2af8:	213f      	movs	r1, #63	; 0x3f
    2afa:	f7fe f8e3 	bl	cc4 <GPIOCtrl>
    2afe:	4622      	mov	r2, r4
    2b00:	2002      	movs	r0, #2
    2b02:	21ff      	movs	r1, #255	; 0xff
    2b04:	f7fe f8de 	bl	cc4 <GPIOCtrl>
    2b08:	4622      	mov	r2, r4
    2b0a:	2003      	movs	r0, #3
    2b0c:	2130      	movs	r1, #48	; 0x30
    2b0e:	f7fe f8d9 	bl	cc4 <GPIOCtrl>
    2b12:	4622      	mov	r2, r4
    2b14:	2004      	movs	r0, #4
    2b16:	213f      	movs	r1, #63	; 0x3f
    2b18:	f7fe f8d4 	bl	cc4 <GPIOCtrl>
    2b1c:	4622      	mov	r2, r4
    2b1e:	2005      	movs	r0, #5
    2b20:	2130      	movs	r1, #48	; 0x30
    2b22:	f7fe f8cf 	bl	cc4 <GPIOCtrl>
    2b26:	23a0      	movs	r3, #160	; 0xa0
    2b28:	f2c4 0300 	movt	r3, #16384	; 0x4000
    2b2c:	681a      	ldr	r2, [r3, #0]
    2b2e:	2001      	movs	r0, #1
    2b30:	f022 0201 	bic.w	r2, r2, #1
    2b34:	601a      	str	r2, [r3, #0]
    2b36:	bd10      	pop	{r4, pc}

00002b38 <HalPinCtrlRtl8195A>:
    2b38:	28e2      	cmp	r0, #226	; 0xe2
    2b3a:	f200 818d 	bhi.w	2e58 <HalPinCtrlRtl8195A+0x320>
    2b3e:	e8df f010 	tbh	[pc, r0, lsl #1]
    2b42:	0187      	.short	0x0187
    2b44:	017f0183 	.word	0x017f0183
    2b48:	018b018b 	.word	0x018b018b
    2b4c:	018b018b 	.word	0x018b018b
    2b50:	017b018b 	.word	0x017b018b
    2b54:	01730177 	.word	0x01730177
    2b58:	018b018b 	.word	0x018b018b
    2b5c:	018b018b 	.word	0x018b018b
    2b60:	016b016f 	.word	0x016b016f
    2b64:	01630167 	.word	0x01630167
    2b68:	018b015f 	.word	0x018b015f
    2b6c:	018b018b 	.word	0x018b018b
    2b70:	015b018b 	.word	0x015b018b
    2b74:	018b0157 	.word	0x018b0157
    2b78:	0153018b 	.word	0x0153018b
    2b7c:	018b014f 	.word	0x018b014f
    2b80:	018b018b 	.word	0x018b018b
    2b84:	018b018b 	.word	0x018b018b
    2b88:	018b018b 	.word	0x018b018b
    2b8c:	018b018b 	.word	0x018b018b
    2b90:	018b018b 	.word	0x018b018b
    2b94:	018b018b 	.word	0x018b018b
    2b98:	018b018b 	.word	0x018b018b
    2b9c:	018b018b 	.word	0x018b018b
    2ba0:	018b018b 	.word	0x018b018b
    2ba4:	018b018b 	.word	0x018b018b
    2ba8:	018b018b 	.word	0x018b018b
    2bac:	018b018b 	.word	0x018b018b
    2bb0:	018b018b 	.word	0x018b018b
    2bb4:	018b018b 	.word	0x018b018b
    2bb8:	018b018b 	.word	0x018b018b
    2bbc:	018b018b 	.word	0x018b018b
    2bc0:	014b018b 	.word	0x014b018b
    2bc4:	018b0147 	.word	0x018b0147
    2bc8:	018b018b 	.word	0x018b018b
    2bcc:	018b018b 	.word	0x018b018b
    2bd0:	018b018b 	.word	0x018b018b
    2bd4:	018b018b 	.word	0x018b018b
    2bd8:	018b018b 	.word	0x018b018b
    2bdc:	018b018b 	.word	0x018b018b
    2be0:	018b018b 	.word	0x018b018b
    2be4:	018b018b 	.word	0x018b018b
    2be8:	018b018b 	.word	0x018b018b
    2bec:	018b018b 	.word	0x018b018b
    2bf0:	0143018b 	.word	0x0143018b
    2bf4:	018b018b 	.word	0x018b018b
    2bf8:	018b018b 	.word	0x018b018b
    2bfc:	018b018b 	.word	0x018b018b
    2c00:	013f018b 	.word	0x013f018b
    2c04:	018b018b 	.word	0x018b018b
    2c08:	018b018b 	.word	0x018b018b
    2c0c:	018b018b 	.word	0x018b018b
    2c10:	013b018b 	.word	0x013b018b
    2c14:	018b0137 	.word	0x018b0137
    2c18:	0133018b 	.word	0x0133018b
    2c1c:	018b012f 	.word	0x018b012f
    2c20:	012b018b 	.word	0x012b018b
    2c24:	018b018b 	.word	0x018b018b
    2c28:	018b018b 	.word	0x018b018b
    2c2c:	018b018b 	.word	0x018b018b
    2c30:	018b018b 	.word	0x018b018b
    2c34:	018b018b 	.word	0x018b018b
    2c38:	018b018b 	.word	0x018b018b
    2c3c:	018b018b 	.word	0x018b018b
    2c40:	018b018b 	.word	0x018b018b
    2c44:	018b018b 	.word	0x018b018b
    2c48:	018b018b 	.word	0x018b018b
    2c4c:	018b018b 	.word	0x018b018b
    2c50:	018b018b 	.word	0x018b018b
    2c54:	018b018b 	.word	0x018b018b
    2c58:	018b018b 	.word	0x018b018b
    2c5c:	018b018b 	.word	0x018b018b
    2c60:	018b018b 	.word	0x018b018b
    2c64:	018b018b 	.word	0x018b018b
    2c68:	018b018b 	.word	0x018b018b
    2c6c:	018b018b 	.word	0x018b018b
    2c70:	018b018b 	.word	0x018b018b
    2c74:	018b018b 	.word	0x018b018b
    2c78:	018b018b 	.word	0x018b018b
    2c7c:	018b018b 	.word	0x018b018b
    2c80:	0127018b 	.word	0x0127018b
    2c84:	011f0123 	.word	0x011f0123
    2c88:	0117011b 	.word	0x0117011b
    2c8c:	010f0113 	.word	0x010f0113
    2c90:	0107010b 	.word	0x0107010b
    2c94:	018b018b 	.word	0x018b018b
    2c98:	018b018b 	.word	0x018b018b
    2c9c:	018b018b 	.word	0x018b018b
    2ca0:	018b018b 	.word	0x018b018b
    2ca4:	018b018b 	.word	0x018b018b
    2ca8:	018b018b 	.word	0x018b018b
    2cac:	018b018b 	.word	0x018b018b
    2cb0:	018b018b 	.word	0x018b018b
    2cb4:	018b018b 	.word	0x018b018b
    2cb8:	018b018b 	.word	0x018b018b
    2cbc:	018b018b 	.word	0x018b018b
    2cc0:	018b018b 	.word	0x018b018b
    2cc4:	018b018b 	.word	0x018b018b
    2cc8:	0103018b 	.word	0x0103018b
    2ccc:	018b018b 	.word	0x018b018b
    2cd0:	00ff018b 	.word	0x00ff018b
    2cd4:	018b018b 	.word	0x018b018b
    2cd8:	018b018b 	.word	0x018b018b
    2cdc:	018b018b 	.word	0x018b018b
    2ce0:	018b018b 	.word	0x018b018b
    2ce4:	018b018b 	.word	0x018b018b
    2ce8:	018b018b 	.word	0x018b018b
    2cec:	018b018b 	.word	0x018b018b
    2cf0:	00fb018b 	.word	0x00fb018b
    2cf4:	018b00f7 	.word	0x018b00f7
    2cf8:	00f3018b 	.word	0x00f3018b
    2cfc:	018b00ef 	.word	0x018b00ef
    2d00:	00eb018b 	.word	0x00eb018b
    2d04:	00e300e7 	.word	0x00e300e7
    2d08:	4608      	mov	r0, r1
    2d0a:	4611      	mov	r1, r2
    2d0c:	f7ff be90 	b.w	2a30 <HalDEBUGPinCtrlRtl8195A>
    2d10:	4608      	mov	r0, r1
    2d12:	4611      	mov	r1, r2
    2d14:	f7ff be60 	b.w	29d8 <HalEEPROMPinCtrlRtl8195A>
    2d18:	4608      	mov	r0, r1
    2d1a:	4611      	mov	r1, r2
    2d1c:	f7ff be30 	b.w	2980 <HalSICPinCtrlRtl8195A>
    2d20:	4608      	mov	r0, r1
    2d22:	4611      	mov	r1, r2
    2d24:	f7ff bdfa 	b.w	291c <HalLOGUartIRPinCtrlRtl8195A>
    2d28:	4608      	mov	r0, r1
    2d2a:	4611      	mov	r1, r2
    2d2c:	f7ff bdc4 	b.w	28b8 <HalLOGUartPinCtrlRtl8195A>
    2d30:	4608      	mov	r0, r1
    2d32:	4611      	mov	r1, r2
    2d34:	f7ff bd94 	b.w	2860 <HalTRACEPinCtrlRtl8195A>
    2d38:	4608      	mov	r0, r1
    2d3a:	4611      	mov	r1, r2
    2d3c:	f7ff bd66 	b.w	280c <HalJTAGPinCtrlRtl8195A>
    2d40:	4608      	mov	r0, r1
    2d42:	4611      	mov	r1, r2
    2d44:	f7ff bcee 	b.w	2724 <HalSDRPinCtrlRtl8195A>
    2d48:	4608      	mov	r0, r1
    2d4a:	4611      	mov	r1, r2
    2d4c:	f7ff bc94 	b.w	2678 <HalSPIFlashPinCtrlRtl8195A>
    2d50:	4608      	mov	r0, r1
    2d52:	4611      	mov	r1, r2
    2d54:	f7ff bc40 	b.w	25d8 <HalEGTIMPinCtrlRtl8195A>
    2d58:	4608      	mov	r0, r1
    2d5a:	4611      	mov	r1, r2
    2d5c:	f7ff bbb8 	b.w	24d0 <HalETE3PinCtrlRtl8195A>
    2d60:	4608      	mov	r0, r1
    2d62:	4611      	mov	r1, r2
    2d64:	f7ff bb30 	b.w	23c8 <HalETE2PinCtrlRtl8195A>
    2d68:	4608      	mov	r0, r1
    2d6a:	4611      	mov	r1, r2
    2d6c:	f7ff baa8 	b.w	22c0 <HalETE1PinCtrlRtl8195A>
    2d70:	4608      	mov	r0, r1
    2d72:	4611      	mov	r1, r2
    2d74:	f7ff ba20 	b.w	21b8 <HalETE0PinCtrlRtl8195A>
    2d78:	4608      	mov	r0, r1
    2d7a:	4611      	mov	r1, r2
    2d7c:	f7ff b998 	b.w	20b0 <HalPWM3PinCtrlRtl8195A>
    2d80:	4608      	mov	r0, r1
    2d82:	4611      	mov	r1, r2
    2d84:	f7ff b916 	b.w	1fb4 <HalPWM2PinCtrlRtl8195A>
    2d88:	4608      	mov	r0, r1
    2d8a:	4611      	mov	r1, r2
    2d8c:	f7ff b88e 	b.w	1eac <HalPWM1PinCtrlRtl8195A>
    2d90:	4608      	mov	r0, r1
    2d92:	4611      	mov	r1, r2
    2d94:	f7ff b808 	b.w	1da8 <HalPWM0PinCtrlRtl8195A>
    2d98:	4608      	mov	r0, r1
    2d9a:	4611      	mov	r1, r2
    2d9c:	f7fe bfdc 	b.w	1d58 <HalNFCPinCtrlRtl8195A>
    2da0:	4608      	mov	r0, r1
    2da2:	4611      	mov	r1, r2
    2da4:	f7fe bfae 	b.w	1d04 <HalWLBTCMDPinCtrlRtl8195A>
    2da8:	4608      	mov	r0, r1
    2daa:	4611      	mov	r1, r2
    2dac:	f7fe bf82 	b.w	1cb4 <HalWLBTCOEXPinCtrlRtl8195A>
    2db0:	4608      	mov	r0, r1
    2db2:	4611      	mov	r1, r2
    2db4:	f7fe bf54 	b.w	1c60 <HalWLANT1PinCtrlRtl8195A>
    2db8:	4608      	mov	r0, r1
    2dba:	4611      	mov	r1, r2
    2dbc:	f7fe bf26 	b.w	1c0c <HalWLANT0PinCtrlRtl8195A>
    2dc0:	4608      	mov	r0, r1
    2dc2:	4611      	mov	r1, r2
    2dc4:	f7fe bec4 	b.w	1b50 <HalWLLEDPinCtrlRtl8195A>
    2dc8:	4608      	mov	r0, r1
    2dca:	4611      	mov	r1, r2
    2dcc:	f7fe be74 	b.w	1ab8 <HalMIIPinCtrlRtl8195A>
    2dd0:	4608      	mov	r0, r1
    2dd2:	4611      	mov	r1, r2
    2dd4:	f7fe be4a 	b.w	1a6c <HalSDIOHPinCtrlRtl8195A>
    2dd8:	4608      	mov	r0, r1
    2dda:	4611      	mov	r1, r2
    2ddc:	f7fe be1e 	b.w	1a1c <HalSDIODPinCtrlRtl8195A>
    2de0:	4608      	mov	r0, r1
    2de2:	4611      	mov	r1, r2
    2de4:	f7fe bdb0 	b.w	1948 <HalPCM1PinCtrlRtl8195A>
    2de8:	4608      	mov	r0, r1
    2dea:	4611      	mov	r1, r2
    2dec:	f7fe bd2a 	b.w	1844 <HalPCM0PinCtrlRtl8195A>
    2df0:	4608      	mov	r0, r1
    2df2:	4611      	mov	r1, r2
    2df4:	f7fe bcba 	b.w	176c <HalI2S1PinCtrlRtl8195A>
    2df8:	4608      	mov	r0, r1
    2dfa:	4611      	mov	r1, r2
    2dfc:	f7fe bc1c 	b.w	1638 <HalI2S0PinCtrlRtl8195A>
    2e00:	4608      	mov	r0, r1
    2e02:	4611      	mov	r1, r2
    2e04:	f7fe bb90 	b.w	1528 <HalI2C3PinCtrlRtl8195A>
    2e08:	4608      	mov	r0, r1
    2e0a:	4611      	mov	r1, r2
    2e0c:	f7fe bb24 	b.w	1458 <HalI2C2PinCtrlRtl8195A>
    2e10:	4608      	mov	r0, r1
    2e12:	4611      	mov	r1, r2
    2e14:	f7fe bab4 	b.w	1380 <HalI2C1PinCtrlRtl8195A>
    2e18:	4608      	mov	r0, r1
    2e1a:	4611      	mov	r1, r2
    2e1c:	f7fe ba2a 	b.w	1274 <HalI2C0PinCtrlRtl8195A>
    2e20:	4608      	mov	r0, r1
    2e22:	4611      	mov	r1, r2
    2e24:	f7fe b9c6 	b.w	11b4 <HalSPI0MCSPinCtrlRtl8195A>
    2e28:	4608      	mov	r0, r1
    2e2a:	4611      	mov	r1, r2
    2e2c:	f7fe b95a 	b.w	10e4 <HalSPI2PinCtrlRtl8195A>
    2e30:	4608      	mov	r0, r1
    2e32:	4611      	mov	r1, r2
    2e34:	f7fe b8ee 	b.w	1014 <HalSPI1PinCtrlRtl8195A>
    2e38:	4608      	mov	r0, r1
    2e3a:	4611      	mov	r1, r2
    2e3c:	f7fe b89a 	b.w	f74 <HalSPI0PinCtrlRtl8195A>
    2e40:	4608      	mov	r0, r1
    2e42:	4611      	mov	r1, r2
    2e44:	f7fe b82a 	b.w	e9c <HalUart2PinCtrlRtl8195A>
    2e48:	4608      	mov	r0, r1
    2e4a:	4611      	mov	r1, r2
    2e4c:	f7fd bfbc 	b.w	dc8 <HalUart1PinCtrlRtl8195A>
    2e50:	4608      	mov	r0, r1
    2e52:	4611      	mov	r1, r2
    2e54:	f7fd bf52 	b.w	cfc <HalUart0PinCtrlRtl8195A>
    2e58:	2000      	movs	r0, #0
    2e5a:	4770      	bx	lr

00002e5c <SpicRxCmdRtl8195A>:
    2e5c:	f246 0308 	movw	r3, #24584	; 0x6008
    2e60:	b470      	push	{r4, r5, r6}
    2e62:	f246 0460 	movw	r4, #24672	; 0x6060
    2e66:	f246 0228 	movw	r2, #24616	; 0x6028
    2e6a:	f2c4 0300 	movt	r3, #16384	; 0x4000
    2e6e:	f44f 41c0 	mov.w	r1, #24576	; 0x6000
    2e72:	f2c4 0100 	movt	r1, #16384	; 0x4000
    2e76:	f2c4 0400 	movt	r4, #16384	; 0x4000
    2e7a:	f2c4 0200 	movt	r2, #16384	; 0x4000
    2e7e:	2500      	movs	r5, #0
    2e80:	601d      	str	r5, [r3, #0]
    2e82:	680e      	ldr	r6, [r1, #0]
    2e84:	2501      	movs	r5, #1
    2e86:	f426 2670 	bic.w	r6, r6, #983040	; 0xf0000
    2e8a:	f426 7640 	bic.w	r6, r6, #768	; 0x300
    2e8e:	f446 7640 	orr.w	r6, r6, #768	; 0x300
    2e92:	600e      	str	r6, [r1, #0]
    2e94:	7020      	strb	r0, [r4, #0]
    2e96:	601d      	str	r5, [r3, #0]
    2e98:	6813      	ldr	r3, [r2, #0]
    2e9a:	07db      	lsls	r3, r3, #31
    2e9c:	d4fc      	bmi.n	2e98 <SpicRxCmdRtl8195A+0x3c>
    2e9e:	bc70      	pop	{r4, r5, r6}
    2ea0:	4770      	bx	lr
    2ea2:	bf00      	nop

00002ea4 <SpicWaitBusyDoneRtl8195A>:
    2ea4:	f246 0228 	movw	r2, #24616	; 0x6028
    2ea8:	f2c4 0200 	movt	r2, #16384	; 0x4000
    2eac:	6813      	ldr	r3, [r2, #0]
    2eae:	07db      	lsls	r3, r3, #31
    2eb0:	d4fc      	bmi.n	2eac <SpicWaitBusyDoneRtl8195A+0x8>
    2eb2:	4770      	bx	lr

00002eb4 <SpicGetFlashStatusRtl8195A>:
    2eb4:	b5f0      	push	{r4, r5, r6, r7, lr}
    2eb6:	f246 0308 	movw	r3, #24584	; 0x6008
    2eba:	f246 0e04 	movw	lr, #24580	; 0x6004
    2ebe:	f246 141c 	movw	r4, #24860	; 0x611c
    2ec2:	f246 0660 	movw	r6, #24672	; 0x6060
    2ec6:	f246 0228 	movw	r2, #24616	; 0x6028
    2eca:	f2c4 0300 	movt	r3, #16384	; 0x4000
    2ece:	f2c4 0e00 	movt	lr, #16384	; 0x4000
    2ed2:	f2c4 0400 	movt	r4, #16384	; 0x4000
    2ed6:	f44f 41c0 	mov.w	r1, #24576	; 0x6000
    2eda:	f2c4 0100 	movt	r1, #16384	; 0x4000
    2ede:	f2c4 0600 	movt	r6, #16384	; 0x4000
    2ee2:	f2c4 0200 	movt	r2, #16384	; 0x4000
    2ee6:	2700      	movs	r7, #0
    2ee8:	b083      	sub	sp, #12
    2eea:	2501      	movs	r5, #1
    2eec:	9001      	str	r0, [sp, #4]
    2eee:	601f      	str	r7, [r3, #0]
    2ef0:	f8ce 5000 	str.w	r5, [lr]
    2ef4:	6820      	ldr	r0, [r4, #0]
    2ef6:	f89d e005 	ldrb.w	lr, [sp, #5]
    2efa:	ea4f 4c10 	mov.w	ip, r0, lsr #16
    2efe:	ea4e 4e0c 	orr.w	lr, lr, ip, lsl #16
    2f02:	f8c4 e000 	str.w	lr, [r4]
    2f06:	601f      	str	r7, [r3, #0]
    2f08:	680c      	ldr	r4, [r1, #0]
    2f0a:	2705      	movs	r7, #5
    2f0c:	f424 2e70 	bic.w	lr, r4, #983040	; 0xf0000
    2f10:	f42e 7e40 	bic.w	lr, lr, #768	; 0x300
    2f14:	f44e 7e40 	orr.w	lr, lr, #768	; 0x300
    2f18:	f8c1 e000 	str.w	lr, [r1]
    2f1c:	b284      	uxth	r4, r0
    2f1e:	7037      	strb	r7, [r6, #0]
    2f20:	601d      	str	r5, [r3, #0]
    2f22:	6813      	ldr	r3, [r2, #0]
    2f24:	07db      	lsls	r3, r3, #31
    2f26:	d4fc      	bmi.n	2f22 <SpicGetFlashStatusRtl8195A+0x6e>
    2f28:	f246 0160 	movw	r1, #24672	; 0x6060
    2f2c:	f246 0208 	movw	r2, #24584	; 0x6008
    2f30:	f246 131c 	movw	r3, #24860	; 0x611c
    2f34:	f2c4 0100 	movt	r1, #16384	; 0x4000
    2f38:	f2c4 0200 	movt	r2, #16384	; 0x4000
    2f3c:	f2c4 0300 	movt	r3, #16384	; 0x4000
    2f40:	2500      	movs	r5, #0
    2f42:	7808      	ldrb	r0, [r1, #0]
    2f44:	6015      	str	r5, [r2, #0]
    2f46:	681a      	ldr	r2, [r3, #0]
    2f48:	0c12      	lsrs	r2, r2, #16
    2f4a:	ea44 4202 	orr.w	r2, r4, r2, lsl #16
    2f4e:	601a      	str	r2, [r3, #0]
    2f50:	b003      	add	sp, #12
    2f52:	bdf0      	pop	{r4, r5, r6, r7, pc}

00002f54 <SpicWaitWipDoneRtl8195A>:
    2f54:	b500      	push	{lr}
    2f56:	b083      	sub	sp, #12
    2f58:	9001      	str	r0, [sp, #4]
    2f5a:	9801      	ldr	r0, [sp, #4]
    2f5c:	f7ff ffaa 	bl	2eb4 <SpicGetFlashStatusRtl8195A>
    2f60:	07c3      	lsls	r3, r0, #31
    2f62:	d4fa      	bmi.n	2f5a <SpicWaitWipDoneRtl8195A+0x6>
    2f64:	b003      	add	sp, #12
    2f66:	f85d fb04 	ldr.w	pc, [sp], #4
    2f6a:	bf00      	nop

00002f6c <SpicTxCmdRtl8195A>:
    2f6c:	f246 0308 	movw	r3, #24584	; 0x6008
    2f70:	b570      	push	{r4, r5, r6, lr}
    2f72:	f246 0560 	movw	r5, #24672	; 0x6060
    2f76:	f246 0228 	movw	r2, #24616	; 0x6028
    2f7a:	f2c4 0300 	movt	r3, #16384	; 0x4000
    2f7e:	f44f 44c0 	mov.w	r4, #24576	; 0x6000
    2f82:	f2c4 0400 	movt	r4, #16384	; 0x4000
    2f86:	f2c4 0500 	movt	r5, #16384	; 0x4000
    2f8a:	f2c4 0200 	movt	r2, #16384	; 0x4000
    2f8e:	2600      	movs	r6, #0
    2f90:	b084      	sub	sp, #16
    2f92:	9101      	str	r1, [sp, #4]
    2f94:	601e      	str	r6, [r3, #0]
    2f96:	6826      	ldr	r6, [r4, #0]
    2f98:	2101      	movs	r1, #1
    2f9a:	f426 2670 	bic.w	r6, r6, #983040	; 0xf0000
    2f9e:	f426 7640 	bic.w	r6, r6, #768	; 0x300
    2fa2:	6026      	str	r6, [r4, #0]
    2fa4:	7028      	strb	r0, [r5, #0]
    2fa6:	6019      	str	r1, [r3, #0]
    2fa8:	6813      	ldr	r3, [r2, #0]
    2faa:	07d9      	lsls	r1, r3, #31
    2fac:	d4fc      	bmi.n	2fa8 <SpicTxCmdRtl8195A+0x3c>
    2fae:	9b01      	ldr	r3, [sp, #4]
    2fb0:	9303      	str	r3, [sp, #12]
    2fb2:	9803      	ldr	r0, [sp, #12]
    2fb4:	f7ff ff7e 	bl	2eb4 <SpicGetFlashStatusRtl8195A>
    2fb8:	07c3      	lsls	r3, r0, #31
    2fba:	d4fa      	bmi.n	2fb2 <SpicTxCmdRtl8195A+0x46>
    2fbc:	b004      	add	sp, #16
    2fbe:	bd70      	pop	{r4, r5, r6, pc}

00002fc0 <SpicSetFlashStatusRtl8195A>:
    2fc0:	e92d 41f0 	stmdb	sp!, {r4, r5, r6, r7, r8, lr}
    2fc4:	f246 1418 	movw	r4, #24856	; 0x6118
    2fc8:	f2c4 0400 	movt	r4, #16384	; 0x4000
    2fcc:	b084      	sub	sp, #16
    2fce:	9101      	str	r1, [sp, #4]
    2fd0:	4680      	mov	r8, r0
    2fd2:	2006      	movs	r0, #6
    2fd4:	6827      	ldr	r7, [r4, #0]
    2fd6:	f7ff ffc9 	bl	2f6c <SpicTxCmdRtl8195A>
    2fda:	f246 0308 	movw	r3, #24584	; 0x6008
    2fde:	f246 0560 	movw	r5, #24672	; 0x6060
    2fe2:	f246 0228 	movw	r2, #24616	; 0x6028
    2fe6:	f2c4 0300 	movt	r3, #16384	; 0x4000
    2fea:	f44f 46c0 	mov.w	r6, #24576	; 0x6000
    2fee:	f2c4 0600 	movt	r6, #16384	; 0x4000
    2ff2:	f2c4 0500 	movt	r5, #16384	; 0x4000
    2ff6:	f2c4 0200 	movt	r2, #16384	; 0x4000
    2ffa:	2100      	movs	r1, #0
    2ffc:	6019      	str	r1, [r3, #0]
    2ffe:	6830      	ldr	r0, [r6, #0]
    3000:	2101      	movs	r1, #1
    3002:	fa5f f888 	uxtb.w	r8, r8
    3006:	f420 7040 	bic.w	r0, r0, #768	; 0x300
    300a:	6030      	str	r0, [r6, #0]
    300c:	6021      	str	r1, [r4, #0]
    300e:	7029      	strb	r1, [r5, #0]
    3010:	f885 8000 	strb.w	r8, [r5]
    3014:	6019      	str	r1, [r3, #0]
    3016:	6813      	ldr	r3, [r2, #0]
    3018:	07d9      	lsls	r1, r3, #31
    301a:	d4fc      	bmi.n	3016 <SpicSetFlashStatusRtl8195A+0x56>
    301c:	f246 0208 	movw	r2, #24584	; 0x6008
    3020:	f246 1318 	movw	r3, #24856	; 0x6118
    3024:	f2c4 0200 	movt	r2, #16384	; 0x4000
    3028:	f2c4 0300 	movt	r3, #16384	; 0x4000
    302c:	2100      	movs	r1, #0
    302e:	6011      	str	r1, [r2, #0]
    3030:	601f      	str	r7, [r3, #0]
    3032:	9b01      	ldr	r3, [sp, #4]
    3034:	9303      	str	r3, [sp, #12]
    3036:	9803      	ldr	r0, [sp, #12]
    3038:	f7ff ff3c 	bl	2eb4 <SpicGetFlashStatusRtl8195A>
    303c:	07c3      	lsls	r3, r0, #31
    303e:	d4fa      	bmi.n	3036 <SpicSetFlashStatusRtl8195A+0x76>
    3040:	b004      	add	sp, #16
    3042:	e8bd 81f0 	ldmia.w	sp!, {r4, r5, r6, r7, r8, pc}
    3046:	bf00      	nop

00003048 <SpicCmpDataForCalibrationRtl8195A>:
    3048:	f640 4088 	movw	r0, #3208	; 0xc88
    304c:	b410      	push	{r4}
    304e:	2410      	movs	r4, #16
    3050:	f2c0 0003 	movt	r0, #3
    3054:	f6c9 0400 	movt	r4, #38912	; 0x9800
    3058:	f04f 4318 	mov.w	r3, #2550136832	; 0x98000000
    305c:	18c2      	adds	r2, r0, r3
    305e:	f102 42d0 	add.w	r2, r2, #1744830464	; 0x68000000
    3062:	6811      	ldr	r1, [r2, #0]
    3064:	681a      	ldr	r2, [r3, #0]
    3066:	3304      	adds	r3, #4
    3068:	4291      	cmp	r1, r2
    306a:	d105      	bne.n	3078 <SpicCmpDataForCalibrationRtl8195A+0x30>
    306c:	42a3      	cmp	r3, r4
    306e:	d1f5      	bne.n	305c <SpicCmpDataForCalibrationRtl8195A+0x14>
    3070:	2001      	movs	r0, #1
    3072:	f85d 4b04 	ldr.w	r4, [sp], #4
    3076:	4770      	bx	lr
    3078:	2000      	movs	r0, #0
    307a:	f85d 4b04 	ldr.w	r4, [sp], #4
    307e:	4770      	bx	lr

00003080 <SpicLoadInitParaFromClockRtl8195A>:
    3080:	2338      	movs	r3, #56	; 0x38
    3082:	b470      	push	{r4, r5, r6}
    3084:	f2c4 0300 	movt	r3, #16384	; 0x4000
    3088:	f44f 74fa 	mov.w	r4, #500	; 0x1f4
    308c:	f2c4 0400 	movt	r4, #16384	; 0x4000
    3090:	6818      	ldr	r0, [r3, #0]
    3092:	4913      	ldr	r1, [pc, #76]	; (30e0 <SpicLoadInitParaFromClockRtl8195A+0x60>)
    3094:	6825      	ldr	r5, [r4, #0]
    3096:	f3c0 6081 	ubfx	r0, r0, #26, #2
    309a:	eb01 0480 	add.w	r4, r1, r0, lsl #2
    309e:	f015 0501 	ands.w	r5, r5, #1
    30a2:	78a6      	ldrb	r6, [r4, #2]
    30a4:	d013      	beq.n	30ce <SpicLoadInitParaFromClockRtl8195A+0x4e>
    30a6:	25e0      	movs	r5, #224	; 0xe0
    30a8:	f2c4 0500 	movt	r5, #16384	; 0x4000
    30ac:	682d      	ldr	r5, [r5, #0]
    30ae:	f015 0520 	ands.w	r5, r5, #32
    30b2:	d00c      	beq.n	30ce <SpicLoadInitParaFromClockRtl8195A+0x4e>
    30b4:	681d      	ldr	r5, [r3, #0]
    30b6:	f015 7580 	ands.w	r5, r5, #16777216	; 0x1000000
    30ba:	bf1f      	itttt	ne
    30bc:	681d      	ldrne	r5, [r3, #0]
    30be:	f3c5 4507 	ubfxne	r5, r5, #16, #8
    30c2:	f005 061f 	andne.w	r6, r5, #31
    30c6:	eb06 0646 	addne.w	r6, r6, r6, lsl #1
    30ca:	bf18      	it	ne
    30cc:	096d      	lsrne	r5, r5, #5
    30ce:	7864      	ldrb	r4, [r4, #1]
    30d0:	f811 3020 	ldrb.w	r3, [r1, r0, lsl #2]
    30d4:	4425      	add	r5, r4
    30d6:	7055      	strb	r5, [r2, #1]
    30d8:	7096      	strb	r6, [r2, #2]
    30da:	7013      	strb	r3, [r2, #0]
    30dc:	bc70      	pop	{r4, r5, r6}
    30de:	4770      	bx	lr
    30e0:	00030c98 	.word	0x00030c98

000030e4 <SpicInitRtl8195A>:
    30e4:	2314      	movs	r3, #20
    30e6:	f2c4 0300 	movt	r3, #16384	; 0x4000
    30ea:	e92d 41f0 	stmdb	sp!, {r4, r5, r6, r7, r8, lr}
    30ee:	4604      	mov	r4, r0
    30f0:	6818      	ldr	r0, [r3, #0]
    30f2:	b082      	sub	sp, #8
    30f4:	4688      	mov	r8, r1
    30f6:	f3c0 1002 	ubfx	r0, r0, #4, #3
    30fa:	4621      	mov	r1, r4
    30fc:	aa01      	add	r2, sp, #4
    30fe:	f246 0708 	movw	r7, #24584	; 0x6008
    3102:	f246 0614 	movw	r6, #24596	; 0x6014
    3106:	f246 0510 	movw	r5, #24592	; 0x6010
    310a:	f7ff ffb9 	bl	3080 <SpicLoadInitParaFromClockRtl8195A>
    310e:	f246 121c 	movw	r2, #24860	; 0x611c
    3112:	f246 0004 	movw	r0, #24580	; 0x6004
    3116:	f2c4 0700 	movt	r7, #16384	; 0x4000
    311a:	f2c4 0600 	movt	r6, #16384	; 0x4000
    311e:	f2c4 0500 	movt	r5, #16384	; 0x4000
    3122:	f2c4 0200 	movt	r2, #16384	; 0x4000
    3126:	f44f 7340 	mov.w	r3, #768	; 0x300
    312a:	f2c4 0300 	movt	r3, #16384	; 0x4000
    312e:	f2c4 0000 	movt	r0, #16384	; 0x4000
    3132:	2101      	movs	r1, #1
    3134:	f04f 0e00 	mov.w	lr, #0
    3138:	f8c7 e000 	str.w	lr, [r7]
    313c:	6034      	str	r4, [r6, #0]
    313e:	6029      	str	r1, [r5, #0]
    3140:	6811      	ldr	r1, [r2, #0]
    3142:	f89d 4005 	ldrb.w	r4, [sp, #5]
    3146:	0c09      	lsrs	r1, r1, #16
    3148:	ea44 4101 	orr.w	r1, r4, r1, lsl #16
    314c:	6011      	str	r1, [r2, #0]
    314e:	6819      	ldr	r1, [r3, #0]
    3150:	f89d 2006 	ldrb.w	r2, [sp, #6]
    3154:	f021 01ff 	bic.w	r1, r1, #255	; 0xff
    3158:	4311      	orrs	r1, r2
    315a:	f1b8 0f01 	cmp.w	r8, #1
    315e:	f04f 0204 	mov.w	r2, #4
    3162:	6019      	str	r1, [r3, #0]
    3164:	6002      	str	r2, [r0, #0]
    3166:	d01b      	beq.n	31a0 <SpicInitRtl8195A+0xbc>
    3168:	d30f      	bcc.n	318a <SpicInitRtl8195A+0xa6>
    316a:	f1b8 0f02 	cmp.w	r8, #2
    316e:	d109      	bne.n	3184 <SpicInitRtl8195A+0xa0>
    3170:	f44f 43c0 	mov.w	r3, #24576	; 0x6000
    3174:	f2c4 0300 	movt	r3, #16384	; 0x4000
    3178:	681a      	ldr	r2, [r3, #0]
    317a:	f422 127c 	bic.w	r2, r2, #4128768	; 0x3f0000
    317e:	f442 2220 	orr.w	r2, r2, #655360	; 0xa0000
    3182:	601a      	str	r2, [r3, #0]
    3184:	b002      	add	sp, #8
    3186:	e8bd 81f0 	ldmia.w	sp!, {r4, r5, r6, r7, r8, pc}
    318a:	f44f 43c0 	mov.w	r3, #24576	; 0x6000
    318e:	f2c4 0300 	movt	r3, #16384	; 0x4000
    3192:	681a      	ldr	r2, [r3, #0]
    3194:	f422 127c 	bic.w	r2, r2, #4128768	; 0x3f0000
    3198:	601a      	str	r2, [r3, #0]
    319a:	b002      	add	sp, #8
    319c:	e8bd 81f0 	ldmia.w	sp!, {r4, r5, r6, r7, r8, pc}
    31a0:	f44f 43c0 	mov.w	r3, #24576	; 0x6000
    31a4:	f2c4 0300 	movt	r3, #16384	; 0x4000
    31a8:	681a      	ldr	r2, [r3, #0]
    31aa:	f422 127c 	bic.w	r2, r2, #4128768	; 0x3f0000
    31ae:	f442 22a0 	orr.w	r2, r2, #327680	; 0x50000
    31b2:	601a      	str	r2, [r3, #0]
    31b4:	b002      	add	sp, #8
    31b6:	e8bd 81f0 	ldmia.w	sp!, {r4, r5, r6, r7, r8, pc}
    31ba:	bf00      	nop

000031bc <SpicEraseFlashRtl8195A>:
    31bc:	b530      	push	{r4, r5, lr}
    31be:	f240 3414 	movw	r4, #788	; 0x314
    31c2:	2314      	movs	r3, #20
    31c4:	f2c4 0300 	movt	r3, #16384	; 0x4000
    31c8:	f2c1 0400 	movt	r4, #4096	; 0x1000
    31cc:	6818      	ldr	r0, [r3, #0]
    31ce:	b083      	sub	sp, #12
    31d0:	466a      	mov	r2, sp
    31d2:	2101      	movs	r1, #1
    31d4:	f3c0 1002 	ubfx	r0, r0, #4, #3
    31d8:	f7ff ff52 	bl	3080 <SpicLoadInitParaFromClockRtl8195A>
    31dc:	6823      	ldr	r3, [r4, #0]
    31de:	005a      	lsls	r2, r3, #1
    31e0:	d420      	bmi.n	3224 <SpicEraseFlashRtl8195A+0x68>
    31e2:	9b00      	ldr	r3, [sp, #0]
    31e4:	9301      	str	r3, [sp, #4]
    31e6:	9801      	ldr	r0, [sp, #4]
    31e8:	f7ff fe64 	bl	2eb4 <SpicGetFlashStatusRtl8195A>
    31ec:	07c1      	lsls	r1, r0, #31
    31ee:	d4fa      	bmi.n	31e6 <SpicEraseFlashRtl8195A+0x2a>
    31f0:	e002      	b.n	31f8 <SpicEraseFlashRtl8195A+0x3c>
    31f2:	9900      	ldr	r1, [sp, #0]
    31f4:	f7ff feba 	bl	2f6c <SpicTxCmdRtl8195A>
    31f8:	9800      	ldr	r0, [sp, #0]
    31fa:	f7ff fe5b 	bl	2eb4 <SpicGetFlashStatusRtl8195A>
    31fe:	f010 0f02 	tst.w	r0, #2
    3202:	f04f 0006 	mov.w	r0, #6
    3206:	d0f4      	beq.n	31f2 <SpicEraseFlashRtl8195A+0x36>
    3208:	6823      	ldr	r3, [r4, #0]
    320a:	005a      	lsls	r2, r3, #1
    320c:	d42a      	bmi.n	3264 <SpicEraseFlashRtl8195A+0xa8>
    320e:	20c7      	movs	r0, #199	; 0xc7
    3210:	9900      	ldr	r1, [sp, #0]
    3212:	f7ff feab 	bl	2f6c <SpicTxCmdRtl8195A>
    3216:	9800      	ldr	r0, [sp, #0]
    3218:	f7ff fe4c 	bl	2eb4 <SpicGetFlashStatusRtl8195A>
    321c:	0783      	lsls	r3, r0, #30
    321e:	d4fa      	bmi.n	3216 <SpicEraseFlashRtl8195A+0x5a>
    3220:	b003      	add	sp, #12
    3222:	bd30      	pop	{r4, r5, pc}
    3224:	f24f 1060 	movw	r0, #61792	; 0xf160
    3228:	f247 55bd 	movw	r5, #30141	; 0x75bd
    322c:	f2c0 0003 	movt	r0, #3
    3230:	f2c1 0500 	movt	r5, #4096	; 0x1000
    3234:	f89d 1000 	ldrb.w	r1, [sp]
    3238:	47a8      	blx	r5
    323a:	6823      	ldr	r3, [r4, #0]
    323c:	005b      	lsls	r3, r3, #1
    323e:	d5d0      	bpl.n	31e2 <SpicEraseFlashRtl8195A+0x26>
    3240:	f24f 1078 	movw	r0, #61816	; 0xf178
    3244:	f89d 1001 	ldrb.w	r1, [sp, #1]
    3248:	f2c0 0003 	movt	r0, #3
    324c:	47a8      	blx	r5
    324e:	6823      	ldr	r3, [r4, #0]
    3250:	0058      	lsls	r0, r3, #1
    3252:	d5c6      	bpl.n	31e2 <SpicEraseFlashRtl8195A+0x26>
    3254:	f24f 1090 	movw	r0, #61840	; 0xf190
    3258:	f89d 1002 	ldrb.w	r1, [sp, #2]
    325c:	f2c0 0003 	movt	r0, #3
    3260:	47a8      	blx	r5
    3262:	e7be      	b.n	31e2 <SpicEraseFlashRtl8195A+0x26>
    3264:	f24f 10a8 	movw	r0, #61864	; 0xf1a8
    3268:	f247 53bd 	movw	r3, #30141	; 0x75bd
    326c:	f2c0 0003 	movt	r0, #3
    3270:	f2c1 0300 	movt	r3, #4096	; 0x1000
    3274:	4798      	blx	r3
    3276:	e7ca      	b.n	320e <SpicEraseFlashRtl8195A+0x52>

00003278 <SpiFlashApp>:
    3278:	2314      	movs	r3, #20
    327a:	f2c4 0300 	movt	r3, #16384	; 0x4000
    327e:	b570      	push	{r4, r5, r6, lr}
    3280:	4605      	mov	r5, r0
    3282:	6818      	ldr	r0, [r3, #0]
    3284:	b082      	sub	sp, #8
    3286:	2101      	movs	r1, #1
    3288:	f3c0 1002 	ubfx	r0, r0, #4, #3
    328c:	aa01      	add	r2, sp, #4
    328e:	f7ff fef7 	bl	3080 <SpicLoadInitParaFromClockRtl8195A>
    3292:	682b      	ldr	r3, [r5, #0]
    3294:	2b01      	cmp	r3, #1
    3296:	d00f      	beq.n	32b8 <SpiFlashApp+0x40>
    3298:	2b02      	cmp	r3, #2
    329a:	d10b      	bne.n	32b4 <SpiFlashApp+0x3c>
    329c:	f240 3414 	movw	r4, #788	; 0x314
    32a0:	f2c1 0400 	movt	r4, #4096	; 0x1000
    32a4:	6823      	ldr	r3, [r4, #0]
    32a6:	005a      	lsls	r2, r3, #1
    32a8:	d45b      	bmi.n	3362 <SpiFlashApp+0xea>
    32aa:	f7ff ff87 	bl	31bc <SpicEraseFlashRtl8195A>
    32ae:	6823      	ldr	r3, [r4, #0]
    32b0:	005b      	lsls	r3, r3, #1
    32b2:	d442      	bmi.n	333a <SpiFlashApp+0xc2>
    32b4:	b002      	add	sp, #8
    32b6:	bd70      	pop	{r4, r5, r6, pc}
    32b8:	f240 3414 	movw	r4, #788	; 0x314
    32bc:	f2c1 0400 	movt	r4, #4096	; 0x1000
    32c0:	6823      	ldr	r3, [r4, #0]
    32c2:	686d      	ldr	r5, [r5, #4]
    32c4:	005e      	lsls	r6, r3, #1
    32c6:	d442      	bmi.n	334e <SpiFlashApp+0xd6>
    32c8:	f44f 7204 	mov.w	r2, #528	; 0x210
    32cc:	f2c4 0200 	movt	r2, #16384	; 0x4000
    32d0:	f44f 730c 	mov.w	r3, #560	; 0x230
    32d4:	f2c4 0300 	movt	r3, #16384	; 0x4000
    32d8:	6811      	ldr	r1, [r2, #0]
    32da:	20c4      	movs	r0, #196	; 0xc4
    32dc:	f041 0110 	orr.w	r1, r1, #16
    32e0:	6011      	str	r1, [r2, #0]
    32e2:	681a      	ldr	r2, [r3, #0]
    32e4:	2100      	movs	r1, #0
    32e6:	f442 7280 	orr.w	r2, r2, #256	; 0x100
    32ea:	601a      	str	r2, [r3, #0]
    32ec:	681e      	ldr	r6, [r3, #0]
    32ee:	2201      	movs	r2, #1
    32f0:	f446 7600 	orr.w	r6, r6, #512	; 0x200
    32f4:	601e      	str	r6, [r3, #0]
    32f6:	f7ff fc1f 	bl	2b38 <HalPinCtrlRtl8195A>
    32fa:	2d01      	cmp	r5, #1
    32fc:	d014      	beq.n	3328 <SpiFlashApp+0xb0>
    32fe:	d30a      	bcc.n	3316 <SpiFlashApp+0x9e>
    3300:	2d02      	cmp	r5, #2
    3302:	d1d7      	bne.n	32b4 <SpiFlashApp+0x3c>
    3304:	6823      	ldr	r3, [r4, #0]
    3306:	0059      	lsls	r1, r3, #1
    3308:	d449      	bmi.n	339e <SpiFlashApp+0x126>
    330a:	f89d 0004 	ldrb.w	r0, [sp, #4]
    330e:	2102      	movs	r1, #2
    3310:	f7ff fee8 	bl	30e4 <SpicInitRtl8195A>
    3314:	e7ce      	b.n	32b4 <SpiFlashApp+0x3c>
    3316:	6823      	ldr	r3, [r4, #0]
    3318:	005c      	lsls	r4, r3, #1
    331a:	d436      	bmi.n	338a <SpiFlashApp+0x112>
    331c:	f89d 0004 	ldrb.w	r0, [sp, #4]
    3320:	2100      	movs	r1, #0
    3322:	f7ff fedf 	bl	30e4 <SpicInitRtl8195A>
    3326:	e7c5      	b.n	32b4 <SpiFlashApp+0x3c>
    3328:	6823      	ldr	r3, [r4, #0]
    332a:	0058      	lsls	r0, r3, #1
    332c:	d423      	bmi.n	3376 <SpiFlashApp+0xfe>
    332e:	f89d 0004 	ldrb.w	r0, [sp, #4]
    3332:	2101      	movs	r1, #1
    3334:	f7ff fed6 	bl	30e4 <SpicInitRtl8195A>
    3338:	e7bc      	b.n	32b4 <SpiFlashApp+0x3c>
    333a:	f24f 2044 	movw	r0, #62020	; 0xf244
    333e:	f247 53bd 	movw	r3, #30141	; 0x75bd
    3342:	f2c0 0003 	movt	r0, #3
    3346:	f2c1 0300 	movt	r3, #4096	; 0x1000
    334a:	4798      	blx	r3
    334c:	e7b2      	b.n	32b4 <SpiFlashApp+0x3c>
    334e:	f24f 10b8 	movw	r0, #61880	; 0xf1b8
    3352:	f247 53bd 	movw	r3, #30141	; 0x75bd
    3356:	f2c0 0003 	movt	r0, #3
    335a:	f2c1 0300 	movt	r3, #4096	; 0x1000
    335e:	4798      	blx	r3
    3360:	e7b2      	b.n	32c8 <SpiFlashApp+0x50>
    3362:	f24f 2030 	movw	r0, #62000	; 0xf230
    3366:	f247 53bd 	movw	r3, #30141	; 0x75bd
    336a:	f2c0 0003 	movt	r0, #3
    336e:	f2c1 0300 	movt	r3, #4096	; 0x1000
    3372:	4798      	blx	r3
    3374:	e799      	b.n	32aa <SpiFlashApp+0x32>
    3376:	f24f 10f4 	movw	r0, #61940	; 0xf1f4
    337a:	f247 53bd 	movw	r3, #30141	; 0x75bd
    337e:	f2c0 0003 	movt	r0, #3
    3382:	f2c1 0300 	movt	r3, #4096	; 0x1000
    3386:	4798      	blx	r3
    3388:	e7d1      	b.n	332e <SpiFlashApp+0xb6>
    338a:	f24f 10d8 	movw	r0, #61912	; 0xf1d8
    338e:	f247 53bd 	movw	r3, #30141	; 0x75bd
    3392:	f2c0 0003 	movt	r0, #3
    3396:	f2c1 0300 	movt	r3, #4096	; 0x1000
    339a:	4798      	blx	r3
    339c:	e7be      	b.n	331c <SpiFlashApp+0xa4>
    339e:	f24f 2010 	movw	r0, #61968	; 0xf210
    33a2:	f247 53bd 	movw	r3, #30141	; 0x75bd
    33a6:	f2c0 0003 	movt	r0, #3
    33aa:	f2c1 0300 	movt	r3, #4096	; 0x1000
    33ae:	4798      	blx	r3
    33b0:	e7ab      	b.n	330a <SpiFlashApp+0x92>
    33b2:	bf00      	nop

000033b4 <HalPeripheralIntrHandle>:
    33b4:	e92d 43f8 	stmdb	sp!, {r3, r4, r5, r6, r7, r8, r9, lr}
    33b8:	f642 0204 	movw	r2, #10244	; 0x2804
    33bc:	f642 030c 	movw	r3, #10252	; 0x280c
    33c0:	f2c4 0200 	movt	r2, #16384	; 0x4000
    33c4:	f2c4 0300 	movt	r3, #16384	; 0x4000
    33c8:	f240 1600 	movw	r6, #256	; 0x100
    33cc:	f240 2500 	movw	r5, #512	; 0x200
    33d0:	f8d2 9000 	ldr.w	r9, [r2]
    33d4:	681b      	ldr	r3, [r3, #0]
    33d6:	f2c1 0600 	movt	r6, #4096	; 0x1000
    33da:	f2c1 0500 	movt	r5, #4096	; 0x1000
    33de:	2400      	movs	r4, #0
    33e0:	ea03 0809 	and.w	r8, r3, r9
    33e4:	2701      	movs	r7, #1
    33e6:	e005      	b.n	33f4 <HalPeripheralIntrHandle+0x40>
    33e8:	2c20      	cmp	r4, #32
    33ea:	f106 0604 	add.w	r6, r6, #4
    33ee:	f105 0504 	add.w	r5, r5, #4
    33f2:	d011      	beq.n	3418 <HalPeripheralIntrHandle+0x64>
    33f4:	fa07 f304 	lsl.w	r3, r7, r4
    33f8:	ea13 0f08 	tst.w	r3, r8
    33fc:	f104 0401 	add.w	r4, r4, #1
    3400:	d0f2      	beq.n	33e8 <HalPeripheralIntrHandle+0x34>
    3402:	f8d6 3080 	ldr.w	r3, [r6, #128]	; 0x80
    3406:	f8d5 0080 	ldr.w	r0, [r5, #128]	; 0x80
    340a:	4798      	blx	r3
    340c:	2c20      	cmp	r4, #32
    340e:	f106 0604 	add.w	r6, r6, #4
    3412:	f105 0504 	add.w	r5, r5, #4
    3416:	d1ed      	bne.n	33f4 <HalPeripheralIntrHandle+0x40>
    3418:	f642 0204 	movw	r2, #10244	; 0x2804
    341c:	f44f 4361 	mov.w	r3, #57600	; 0xe100
    3420:	f2c4 0200 	movt	r2, #16384	; 0x4000
    3424:	f2ce 0300 	movt	r3, #57344	; 0xe000
    3428:	f44f 2100 	mov.w	r1, #524288	; 0x80000
    342c:	f8c2 9000 	str.w	r9, [r2]
    3430:	f8c3 1180 	str.w	r1, [r3, #384]	; 0x180
    3434:	e8bd 83f8 	ldmia.w	sp!, {r3, r4, r5, r6, r7, r8, r9, pc}

00003438 <HalSysOnIntrHandle>:
    3438:	b508      	push	{r3, lr}
    343a:	f240 1300 	movw	r3, #256	; 0x100
    343e:	f2c1 0300 	movt	r3, #4096	; 0x1000
    3442:	6819      	ldr	r1, [r3, #0]
    3444:	b169      	cbz	r1, 3462 <HalSysOnIntrHandle+0x2a>
    3446:	f240 2300 	movw	r3, #512	; 0x200
    344a:	f2c1 0300 	movt	r3, #4096	; 0x1000
    344e:	6818      	ldr	r0, [r3, #0]
    3450:	4788      	blx	r1
    3452:	f44f 4361 	mov.w	r3, #57600	; 0xe100
    3456:	f2ce 0300 	movt	r3, #57344	; 0xe000
    345a:	2201      	movs	r2, #1
    345c:	f8c3 2180 	str.w	r2, [r3, #384]	; 0x180
    3460:	bd08      	pop	{r3, pc}
    3462:	f240 3314 	movw	r3, #788	; 0x314
    3466:	f2c1 0300 	movt	r3, #4096	; 0x1000
    346a:	681b      	ldr	r3, [r3, #0]
    346c:	005b      	lsls	r3, r3, #1
    346e:	d5f0      	bpl.n	3452 <HalSysOnIntrHandle+0x1a>
    3470:	f24f 2058 	movw	r0, #62040	; 0xf258
    3474:	f247 53bd 	movw	r3, #30141	; 0x75bd
    3478:	f2c0 0003 	movt	r0, #3
    347c:	f2c1 0300 	movt	r3, #4096	; 0x1000
    3480:	4798      	blx	r3
    3482:	e7e6      	b.n	3452 <HalSysOnIntrHandle+0x1a>

00003484 <HalWdgIntrHandle>:
    3484:	b508      	push	{r3, lr}
    3486:	f240 1300 	movw	r3, #256	; 0x100
    348a:	f2c1 0300 	movt	r3, #4096	; 0x1000
    348e:	685b      	ldr	r3, [r3, #4]
    3490:	b16b      	cbz	r3, 34ae <HalWdgIntrHandle+0x2a>
    3492:	f240 2200 	movw	r2, #512	; 0x200
    3496:	f2c1 0200 	movt	r2, #4096	; 0x1000
    349a:	6850      	ldr	r0, [r2, #4]
    349c:	4798      	blx	r3
    349e:	f44f 4361 	mov.w	r3, #57600	; 0xe100
    34a2:	f2ce 0300 	movt	r3, #57344	; 0xe000
    34a6:	2202      	movs	r2, #2
    34a8:	f8c3 2180 	str.w	r2, [r3, #384]	; 0x180
    34ac:	bd08      	pop	{r3, pc}
    34ae:	f240 3314 	movw	r3, #788	; 0x314
    34b2:	f2c1 0300 	movt	r3, #4096	; 0x1000
    34b6:	681b      	ldr	r3, [r3, #0]
    34b8:	005b      	lsls	r3, r3, #1
    34ba:	d5f0      	bpl.n	349e <HalWdgIntrHandle+0x1a>
    34bc:	f24f 2058 	movw	r0, #62040	; 0xf258
    34c0:	f247 53bd 	movw	r3, #30141	; 0x75bd
    34c4:	2101      	movs	r1, #1
    34c6:	f2c1 0300 	movt	r3, #4096	; 0x1000
    34ca:	f2c0 0003 	movt	r0, #3
    34ce:	4798      	blx	r3
    34d0:	e7e5      	b.n	349e <HalWdgIntrHandle+0x1a>
    34d2:	bf00      	nop

000034d4 <HalTimer0IntrHandle>:
    34d4:	b508      	push	{r3, lr}
    34d6:	f240 1300 	movw	r3, #256	; 0x100
    34da:	f2c1 0300 	movt	r3, #4096	; 0x1000
    34de:	689b      	ldr	r3, [r3, #8]
    34e0:	b16b      	cbz	r3, 34fe <HalTimer0IntrHandle+0x2a>
    34e2:	f240 2200 	movw	r2, #512	; 0x200
    34e6:	f2c1 0200 	movt	r2, #4096	; 0x1000
    34ea:	6890      	ldr	r0, [r2, #8]
    34ec:	4798      	blx	r3
    34ee:	f44f 4361 	mov.w	r3, #57600	; 0xe100
    34f2:	f2ce 0300 	movt	r3, #57344	; 0xe000
    34f6:	2204      	movs	r2, #4
    34f8:	f8c3 2180 	str.w	r2, [r3, #384]	; 0x180
    34fc:	bd08      	pop	{r3, pc}
    34fe:	f240 3314 	movw	r3, #788	; 0x314
    3502:	f2c1 0300 	movt	r3, #4096	; 0x1000
    3506:	681b      	ldr	r3, [r3, #0]
    3508:	005b      	lsls	r3, r3, #1
    350a:	d5f0      	bpl.n	34ee <HalTimer0IntrHandle+0x1a>
    350c:	f24f 2058 	movw	r0, #62040	; 0xf258
    3510:	f247 53bd 	movw	r3, #30141	; 0x75bd
    3514:	2102      	movs	r1, #2
    3516:	f2c1 0300 	movt	r3, #4096	; 0x1000
    351a:	f2c0 0003 	movt	r0, #3
    351e:	4798      	blx	r3
    3520:	e7e5      	b.n	34ee <HalTimer0IntrHandle+0x1a>
    3522:	bf00      	nop

00003524 <HalTimer1IntrHandle>:
    3524:	b508      	push	{r3, lr}
    3526:	f240 1300 	movw	r3, #256	; 0x100
    352a:	f2c1 0300 	movt	r3, #4096	; 0x1000
    352e:	68db      	ldr	r3, [r3, #12]
    3530:	b16b      	cbz	r3, 354e <HalTimer1IntrHandle+0x2a>
    3532:	f240 2200 	movw	r2, #512	; 0x200
    3536:	f2c1 0200 	movt	r2, #4096	; 0x1000
    353a:	68d0      	ldr	r0, [r2, #12]
    353c:	4798      	blx	r3
    353e:	f44f 4361 	mov.w	r3, #57600	; 0xe100
    3542:	f2ce 0300 	movt	r3, #57344	; 0xe000
    3546:	2208      	movs	r2, #8
    3548:	f8c3 2180 	str.w	r2, [r3, #384]	; 0x180
    354c:	bd08      	pop	{r3, pc}
    354e:	f240 3314 	movw	r3, #788	; 0x314
    3552:	f2c1 0300 	movt	r3, #4096	; 0x1000
    3556:	681b      	ldr	r3, [r3, #0]
    3558:	005b      	lsls	r3, r3, #1
    355a:	d5f0      	bpl.n	353e <HalTimer1IntrHandle+0x1a>
    355c:	f24f 2058 	movw	r0, #62040	; 0xf258
    3560:	f247 53bd 	movw	r3, #30141	; 0x75bd
    3564:	2103      	movs	r1, #3
    3566:	f2c1 0300 	movt	r3, #4096	; 0x1000
    356a:	f2c0 0003 	movt	r0, #3
    356e:	4798      	blx	r3
    3570:	e7e5      	b.n	353e <HalTimer1IntrHandle+0x1a>
    3572:	bf00      	nop

00003574 <HalI2C3IntrHandle>:
    3574:	b508      	push	{r3, lr}
    3576:	f240 1300 	movw	r3, #256	; 0x100
    357a:	f2c1 0300 	movt	r3, #4096	; 0x1000
    357e:	691b      	ldr	r3, [r3, #16]
    3580:	b16b      	cbz	r3, 359e <HalI2C3IntrHandle+0x2a>
    3582:	f240 2200 	movw	r2, #512	; 0x200
    3586:	f2c1 0200 	movt	r2, #4096	; 0x1000
    358a:	6910      	ldr	r0, [r2, #16]
    358c:	4798      	blx	r3
    358e:	f44f 4361 	mov.w	r3, #57600	; 0xe100
    3592:	f2ce 0300 	movt	r3, #57344	; 0xe000
    3596:	2210      	movs	r2, #16
    3598:	f8c3 2180 	str.w	r2, [r3, #384]	; 0x180
    359c:	bd08      	pop	{r3, pc}
    359e:	f240 3314 	movw	r3, #788	; 0x314
    35a2:	f2c1 0300 	movt	r3, #4096	; 0x1000
    35a6:	681b      	ldr	r3, [r3, #0]
    35a8:	005b      	lsls	r3, r3, #1
    35aa:	d5f0      	bpl.n	358e <HalI2C3IntrHandle+0x1a>
    35ac:	f24f 2058 	movw	r0, #62040	; 0xf258
    35b0:	f247 53bd 	movw	r3, #30141	; 0x75bd
    35b4:	2104      	movs	r1, #4
    35b6:	f2c1 0300 	movt	r3, #4096	; 0x1000
    35ba:	f2c0 0003 	movt	r0, #3
    35be:	4798      	blx	r3
    35c0:	e7e5      	b.n	358e <HalI2C3IntrHandle+0x1a>
    35c2:	bf00      	nop

000035c4 <HalTimer2To7IntrHandle>:
    35c4:	b508      	push	{r3, lr}
    35c6:	f240 1300 	movw	r3, #256	; 0x100
    35ca:	f2c1 0300 	movt	r3, #4096	; 0x1000
    35ce:	695b      	ldr	r3, [r3, #20]
    35d0:	b16b      	cbz	r3, 35ee <HalTimer2To7IntrHandle+0x2a>
    35d2:	f240 2200 	movw	r2, #512	; 0x200
    35d6:	f2c1 0200 	movt	r2, #4096	; 0x1000
    35da:	6950      	ldr	r0, [r2, #20]
    35dc:	4798      	blx	r3
    35de:	f44f 4361 	mov.w	r3, #57600	; 0xe100
    35e2:	f2ce 0300 	movt	r3, #57344	; 0xe000
    35e6:	2220      	movs	r2, #32
    35e8:	f8c3 2180 	str.w	r2, [r3, #384]	; 0x180
    35ec:	bd08      	pop	{r3, pc}
    35ee:	f240 3314 	movw	r3, #788	; 0x314
    35f2:	f2c1 0300 	movt	r3, #4096	; 0x1000
    35f6:	681b      	ldr	r3, [r3, #0]
    35f8:	005b      	lsls	r3, r3, #1
    35fa:	d5f0      	bpl.n	35de <HalTimer2To7IntrHandle+0x1a>
    35fc:	f24f 2058 	movw	r0, #62040	; 0xf258
    3600:	f247 53bd 	movw	r3, #30141	; 0x75bd
    3604:	2105      	movs	r1, #5
    3606:	f2c1 0300 	movt	r3, #4096	; 0x1000
    360a:	f2c0 0003 	movt	r0, #3
    360e:	4798      	blx	r3
    3610:	e7e5      	b.n	35de <HalTimer2To7IntrHandle+0x1a>
    3612:	bf00      	nop

00003614 <HalSpi0IntrHandle>:
    3614:	b508      	push	{r3, lr}
    3616:	f240 1300 	movw	r3, #256	; 0x100
    361a:	f2c1 0300 	movt	r3, #4096	; 0x1000
    361e:	699b      	ldr	r3, [r3, #24]
    3620:	b16b      	cbz	r3, 363e <HalSpi0IntrHandle+0x2a>
    3622:	f240 2200 	movw	r2, #512	; 0x200
    3626:	f2c1 0200 	movt	r2, #4096	; 0x1000
    362a:	6990      	ldr	r0, [r2, #24]
    362c:	4798      	blx	r3
    362e:	f44f 4361 	mov.w	r3, #57600	; 0xe100
    3632:	f2ce 0300 	movt	r3, #57344	; 0xe000
    3636:	2240      	movs	r2, #64	; 0x40
    3638:	f8c3 2180 	str.w	r2, [r3, #384]	; 0x180
    363c:	bd08      	pop	{r3, pc}
    363e:	f240 3314 	movw	r3, #788	; 0x314
    3642:	f2c1 0300 	movt	r3, #4096	; 0x1000
    3646:	681b      	ldr	r3, [r3, #0]
    3648:	005b      	lsls	r3, r3, #1
    364a:	d5f0      	bpl.n	362e <HalSpi0IntrHandle+0x1a>
    364c:	f24f 2058 	movw	r0, #62040	; 0xf258
    3650:	f247 53bd 	movw	r3, #30141	; 0x75bd
    3654:	2106      	movs	r1, #6
    3656:	f2c1 0300 	movt	r3, #4096	; 0x1000
    365a:	f2c0 0003 	movt	r0, #3
    365e:	4798      	blx	r3
    3660:	e7e5      	b.n	362e <HalSpi0IntrHandle+0x1a>
    3662:	bf00      	nop

00003664 <HalGpioIntrHandle>:
    3664:	b508      	push	{r3, lr}
    3666:	f240 1300 	movw	r3, #256	; 0x100
    366a:	f2c1 0300 	movt	r3, #4096	; 0x1000
    366e:	69db      	ldr	r3, [r3, #28]
    3670:	b16b      	cbz	r3, 368e <HalGpioIntrHandle+0x2a>
    3672:	f240 2200 	movw	r2, #512	; 0x200
    3676:	f2c1 0200 	movt	r2, #4096	; 0x1000
    367a:	69d0      	ldr	r0, [r2, #28]
    367c:	4798      	blx	r3
    367e:	f44f 4361 	mov.w	r3, #57600	; 0xe100
    3682:	f2ce 0300 	movt	r3, #57344	; 0xe000
    3686:	2280      	movs	r2, #128	; 0x80
    3688:	f8c3 2180 	str.w	r2, [r3, #384]	; 0x180
    368c:	bd08      	pop	{r3, pc}
    368e:	f240 3314 	movw	r3, #788	; 0x314
    3692:	f2c1 0300 	movt	r3, #4096	; 0x1000
    3696:	681b      	ldr	r3, [r3, #0]
    3698:	005b      	lsls	r3, r3, #1
    369a:	d5f0      	bpl.n	367e <HalGpioIntrHandle+0x1a>
    369c:	f24f 2058 	movw	r0, #62040	; 0xf258
    36a0:	f247 53bd 	movw	r3, #30141	; 0x75bd
    36a4:	2107      	movs	r1, #7
    36a6:	f2c1 0300 	movt	r3, #4096	; 0x1000
    36aa:	f2c0 0003 	movt	r0, #3
    36ae:	4798      	blx	r3
    36b0:	e7e5      	b.n	367e <HalGpioIntrHandle+0x1a>
    36b2:	bf00      	nop

000036b4 <HalUart0IntrHandle>:
    36b4:	b508      	push	{r3, lr}
    36b6:	f240 1300 	movw	r3, #256	; 0x100
    36ba:	f2c1 0300 	movt	r3, #4096	; 0x1000
    36be:	6a1b      	ldr	r3, [r3, #32]
    36c0:	b173      	cbz	r3, 36e0 <HalUart0IntrHandle+0x2c>
    36c2:	f240 2200 	movw	r2, #512	; 0x200
    36c6:	f2c1 0200 	movt	r2, #4096	; 0x1000
    36ca:	6a10      	ldr	r0, [r2, #32]
    36cc:	4798      	blx	r3
    36ce:	f44f 4361 	mov.w	r3, #57600	; 0xe100
    36d2:	f2ce 0300 	movt	r3, #57344	; 0xe000
    36d6:	f44f 7280 	mov.w	r2, #256	; 0x100
    36da:	f8c3 2180 	str.w	r2, [r3, #384]	; 0x180
    36de:	bd08      	pop	{r3, pc}
    36e0:	f240 3314 	movw	r3, #788	; 0x314
    36e4:	f2c1 0300 	movt	r3, #4096	; 0x1000
    36e8:	681b      	ldr	r3, [r3, #0]
    36ea:	005b      	lsls	r3, r3, #1
    36ec:	d5ef      	bpl.n	36ce <HalUart0IntrHandle+0x1a>
    36ee:	f24f 2058 	movw	r0, #62040	; 0xf258
    36f2:	f247 53bd 	movw	r3, #30141	; 0x75bd
    36f6:	2108      	movs	r1, #8
    36f8:	f2c1 0300 	movt	r3, #4096	; 0x1000
    36fc:	f2c0 0003 	movt	r0, #3
    3700:	4798      	blx	r3
    3702:	e7e4      	b.n	36ce <HalUart0IntrHandle+0x1a>

00003704 <HalSpiFlashIntrHandle>:
    3704:	b508      	push	{r3, lr}
    3706:	f240 1300 	movw	r3, #256	; 0x100
    370a:	f2c1 0300 	movt	r3, #4096	; 0x1000
    370e:	6a5b      	ldr	r3, [r3, #36]	; 0x24
    3710:	b173      	cbz	r3, 3730 <HalSpiFlashIntrHandle+0x2c>
    3712:	f240 2200 	movw	r2, #512	; 0x200
    3716:	f2c1 0200 	movt	r2, #4096	; 0x1000
    371a:	6a50      	ldr	r0, [r2, #36]	; 0x24
    371c:	4798      	blx	r3
    371e:	f44f 4361 	mov.w	r3, #57600	; 0xe100
    3722:	f2ce 0300 	movt	r3, #57344	; 0xe000
    3726:	f44f 7200 	mov.w	r2, #512	; 0x200
    372a:	f8c3 2180 	str.w	r2, [r3, #384]	; 0x180
    372e:	bd08      	pop	{r3, pc}
    3730:	f240 3314 	movw	r3, #788	; 0x314
    3734:	f2c1 0300 	movt	r3, #4096	; 0x1000
    3738:	681b      	ldr	r3, [r3, #0]
    373a:	005b      	lsls	r3, r3, #1
    373c:	d5ef      	bpl.n	371e <HalSpiFlashIntrHandle+0x1a>
    373e:	f24f 2058 	movw	r0, #62040	; 0xf258
    3742:	f247 53bd 	movw	r3, #30141	; 0x75bd
    3746:	2109      	movs	r1, #9
    3748:	f2c1 0300 	movt	r3, #4096	; 0x1000
    374c:	f2c0 0003 	movt	r0, #3
    3750:	4798      	blx	r3
    3752:	e7e4      	b.n	371e <HalSpiFlashIntrHandle+0x1a>

00003754 <HalUsbOtgIntrHandle>:
    3754:	b508      	push	{r3, lr}
    3756:	f240 1300 	movw	r3, #256	; 0x100
    375a:	f2c1 0300 	movt	r3, #4096	; 0x1000
    375e:	6a9b      	ldr	r3, [r3, #40]	; 0x28
    3760:	b173      	cbz	r3, 3780 <HalUsbOtgIntrHandle+0x2c>
    3762:	f240 2200 	movw	r2, #512	; 0x200
    3766:	f2c1 0200 	movt	r2, #4096	; 0x1000
    376a:	6a90      	ldr	r0, [r2, #40]	; 0x28
    376c:	4798      	blx	r3
    376e:	f44f 4361 	mov.w	r3, #57600	; 0xe100
    3772:	f2ce 0300 	movt	r3, #57344	; 0xe000
    3776:	f44f 6280 	mov.w	r2, #1024	; 0x400
    377a:	f8c3 2180 	str.w	r2, [r3, #384]	; 0x180
    377e:	bd08      	pop	{r3, pc}
    3780:	f240 3314 	movw	r3, #788	; 0x314
    3784:	f2c1 0300 	movt	r3, #4096	; 0x1000
    3788:	681b      	ldr	r3, [r3, #0]
    378a:	005b      	lsls	r3, r3, #1
    378c:	d5ef      	bpl.n	376e <HalUsbOtgIntrHandle+0x1a>
    378e:	f24f 2058 	movw	r0, #62040	; 0xf258
    3792:	f247 53bd 	movw	r3, #30141	; 0x75bd
    3796:	210a      	movs	r1, #10
    3798:	f2c1 0300 	movt	r3, #4096	; 0x1000
    379c:	f2c0 0003 	movt	r0, #3
    37a0:	4798      	blx	r3
    37a2:	e7e4      	b.n	376e <HalUsbOtgIntrHandle+0x1a>

000037a4 <HalSdioHostIntrHandle>:
    37a4:	b508      	push	{r3, lr}
    37a6:	f240 1300 	movw	r3, #256	; 0x100
    37aa:	f2c1 0300 	movt	r3, #4096	; 0x1000
    37ae:	6adb      	ldr	r3, [r3, #44]	; 0x2c
    37b0:	b173      	cbz	r3, 37d0 <HalSdioHostIntrHandle+0x2c>
    37b2:	f240 2200 	movw	r2, #512	; 0x200
    37b6:	f2c1 0200 	movt	r2, #4096	; 0x1000
    37ba:	6ad0      	ldr	r0, [r2, #44]	; 0x2c
    37bc:	4798      	blx	r3
    37be:	f44f 4361 	mov.w	r3, #57600	; 0xe100
    37c2:	f2ce 0300 	movt	r3, #57344	; 0xe000
    37c6:	f44f 6200 	mov.w	r2, #2048	; 0x800
    37ca:	f8c3 2180 	str.w	r2, [r3, #384]	; 0x180
    37ce:	bd08      	pop	{r3, pc}
    37d0:	f240 3314 	movw	r3, #788	; 0x314
    37d4:	f2c1 0300 	movt	r3, #4096	; 0x1000
    37d8:	681b      	ldr	r3, [r3, #0]
    37da:	005b      	lsls	r3, r3, #1
    37dc:	d5ef      	bpl.n	37be <HalSdioHostIntrHandle+0x1a>
    37de:	f24f 2058 	movw	r0, #62040	; 0xf258
    37e2:	f247 53bd 	movw	r3, #30141	; 0x75bd
    37e6:	210b      	movs	r1, #11
    37e8:	f2c1 0300 	movt	r3, #4096	; 0x1000
    37ec:	f2c0 0003 	movt	r0, #3
    37f0:	4798      	blx	r3
    37f2:	e7e4      	b.n	37be <HalSdioHostIntrHandle+0x1a>

000037f4 <HalI2s0OrPcm0IntrHandle>:
    37f4:	b508      	push	{r3, lr}
    37f6:	f240 1300 	movw	r3, #256	; 0x100
    37fa:	f2c1 0300 	movt	r3, #4096	; 0x1000
    37fe:	6b5b      	ldr	r3, [r3, #52]	; 0x34
    3800:	b173      	cbz	r3, 3820 <HalI2s0OrPcm0IntrHandle+0x2c>
    3802:	f240 2200 	movw	r2, #512	; 0x200
    3806:	f2c1 0200 	movt	r2, #4096	; 0x1000
    380a:	6b50      	ldr	r0, [r2, #52]	; 0x34
    380c:	4798      	blx	r3
    380e:	f44f 4361 	mov.w	r3, #57600	; 0xe100
    3812:	f2ce 0300 	movt	r3, #57344	; 0xe000
    3816:	f44f 5200 	mov.w	r2, #8192	; 0x2000
    381a:	f8c3 2180 	str.w	r2, [r3, #384]	; 0x180
    381e:	bd08      	pop	{r3, pc}
    3820:	f240 3314 	movw	r3, #788	; 0x314
    3824:	f2c1 0300 	movt	r3, #4096	; 0x1000
    3828:	681b      	ldr	r3, [r3, #0]
    382a:	005b      	lsls	r3, r3, #1
    382c:	d5ef      	bpl.n	380e <HalI2s0OrPcm0IntrHandle+0x1a>
    382e:	f24f 2058 	movw	r0, #62040	; 0xf258
    3832:	f247 53bd 	movw	r3, #30141	; 0x75bd
    3836:	210d      	movs	r1, #13
    3838:	f2c1 0300 	movt	r3, #4096	; 0x1000
    383c:	f2c0 0003 	movt	r0, #3
    3840:	4798      	blx	r3
    3842:	e7e4      	b.n	380e <HalI2s0OrPcm0IntrHandle+0x1a>

00003844 <HalI2s1OrPcm1IntrHandle>:
    3844:	b508      	push	{r3, lr}
    3846:	f240 1300 	movw	r3, #256	; 0x100
    384a:	f2c1 0300 	movt	r3, #4096	; 0x1000
    384e:	6b9b      	ldr	r3, [r3, #56]	; 0x38
    3850:	b173      	cbz	r3, 3870 <HalI2s1OrPcm1IntrHandle+0x2c>
    3852:	f240 2200 	movw	r2, #512	; 0x200
    3856:	f2c1 0200 	movt	r2, #4096	; 0x1000
    385a:	6b90      	ldr	r0, [r2, #56]	; 0x38
    385c:	4798      	blx	r3
    385e:	f44f 4361 	mov.w	r3, #57600	; 0xe100
    3862:	f2ce 0300 	movt	r3, #57344	; 0xe000
    3866:	f44f 4280 	mov.w	r2, #16384	; 0x4000
    386a:	f8c3 2180 	str.w	r2, [r3, #384]	; 0x180
    386e:	bd08      	pop	{r3, pc}
    3870:	f240 3314 	movw	r3, #788	; 0x314
    3874:	f2c1 0300 	movt	r3, #4096	; 0x1000
    3878:	681b      	ldr	r3, [r3, #0]
    387a:	005b      	lsls	r3, r3, #1
    387c:	d5ef      	bpl.n	385e <HalI2s1OrPcm1IntrHandle+0x1a>
    387e:	f24f 2058 	movw	r0, #62040	; 0xf258
    3882:	f247 53bd 	movw	r3, #30141	; 0x75bd
    3886:	210e      	movs	r1, #14
    3888:	f2c1 0300 	movt	r3, #4096	; 0x1000
    388c:	f2c0 0003 	movt	r0, #3
    3890:	4798      	blx	r3
    3892:	e7e4      	b.n	385e <HalI2s1OrPcm1IntrHandle+0x1a>

00003894 <HalWlDmaIntrHandle>:
    3894:	b508      	push	{r3, lr}
    3896:	f240 1300 	movw	r3, #256	; 0x100
    389a:	f2c1 0300 	movt	r3, #4096	; 0x1000
    389e:	6bdb      	ldr	r3, [r3, #60]	; 0x3c
    38a0:	b173      	cbz	r3, 38c0 <HalWlDmaIntrHandle+0x2c>
    38a2:	f240 2200 	movw	r2, #512	; 0x200
    38a6:	f2c1 0200 	movt	r2, #4096	; 0x1000
    38aa:	6bd0      	ldr	r0, [r2, #60]	; 0x3c
    38ac:	4798      	blx	r3
    38ae:	f44f 4361 	mov.w	r3, #57600	; 0xe100
    38b2:	f2ce 0300 	movt	r3, #57344	; 0xe000
    38b6:	f44f 4200 	mov.w	r2, #32768	; 0x8000
    38ba:	f8c3 2180 	str.w	r2, [r3, #384]	; 0x180
    38be:	bd08      	pop	{r3, pc}
    38c0:	f240 3314 	movw	r3, #788	; 0x314
    38c4:	f2c1 0300 	movt	r3, #4096	; 0x1000
    38c8:	681b      	ldr	r3, [r3, #0]
    38ca:	005b      	lsls	r3, r3, #1
    38cc:	d5ef      	bpl.n	38ae <HalWlDmaIntrHandle+0x1a>
    38ce:	f24f 2058 	movw	r0, #62040	; 0xf258
    38d2:	f247 53bd 	movw	r3, #30141	; 0x75bd
    38d6:	210f      	movs	r1, #15
    38d8:	f2c1 0300 	movt	r3, #4096	; 0x1000
    38dc:	f2c0 0003 	movt	r0, #3
    38e0:	4798      	blx	r3
    38e2:	e7e4      	b.n	38ae <HalWlDmaIntrHandle+0x1a>

000038e4 <HalWlProtocolIntrHandle>:
    38e4:	b508      	push	{r3, lr}
    38e6:	f240 1300 	movw	r3, #256	; 0x100
    38ea:	f2c1 0300 	movt	r3, #4096	; 0x1000
    38ee:	6c1b      	ldr	r3, [r3, #64]	; 0x40
    38f0:	b173      	cbz	r3, 3910 <HalWlProtocolIntrHandle+0x2c>
    38f2:	f240 2200 	movw	r2, #512	; 0x200
    38f6:	f2c1 0200 	movt	r2, #4096	; 0x1000
    38fa:	6c10      	ldr	r0, [r2, #64]	; 0x40
    38fc:	4798      	blx	r3
    38fe:	f44f 4361 	mov.w	r3, #57600	; 0xe100
    3902:	f2ce 0300 	movt	r3, #57344	; 0xe000
    3906:	f44f 3280 	mov.w	r2, #65536	; 0x10000
    390a:	f8c3 2180 	str.w	r2, [r3, #384]	; 0x180
    390e:	bd08      	pop	{r3, pc}
    3910:	f240 3314 	movw	r3, #788	; 0x314
    3914:	f2c1 0300 	movt	r3, #4096	; 0x1000
    3918:	681b      	ldr	r3, [r3, #0]
    391a:	005b      	lsls	r3, r3, #1
    391c:	d5ef      	bpl.n	38fe <HalWlProtocolIntrHandle+0x1a>
    391e:	f24f 2058 	movw	r0, #62040	; 0xf258
    3922:	f247 53bd 	movw	r3, #30141	; 0x75bd
    3926:	2110      	movs	r1, #16
    3928:	f2c1 0300 	movt	r3, #4096	; 0x1000
    392c:	f2c0 0003 	movt	r0, #3
    3930:	4798      	blx	r3
    3932:	e7e4      	b.n	38fe <HalWlProtocolIntrHandle+0x1a>

00003934 <HalCryptoIntrHandle>:
    3934:	b508      	push	{r3, lr}
    3936:	f240 1300 	movw	r3, #256	; 0x100
    393a:	f2c1 0300 	movt	r3, #4096	; 0x1000
    393e:	6c5b      	ldr	r3, [r3, #68]	; 0x44
    3940:	b173      	cbz	r3, 3960 <HalCryptoIntrHandle+0x2c>
    3942:	f240 2200 	movw	r2, #512	; 0x200
    3946:	f2c1 0200 	movt	r2, #4096	; 0x1000
    394a:	6c50      	ldr	r0, [r2, #68]	; 0x44
    394c:	4798      	blx	r3
    394e:	f44f 4361 	mov.w	r3, #57600	; 0xe100
    3952:	f2ce 0300 	movt	r3, #57344	; 0xe000
    3956:	f44f 3200 	mov.w	r2, #131072	; 0x20000
    395a:	f8c3 2180 	str.w	r2, [r3, #384]	; 0x180
    395e:	bd08      	pop	{r3, pc}
    3960:	f240 3314 	movw	r3, #788	; 0x314
    3964:	f2c1 0300 	movt	r3, #4096	; 0x1000
    3968:	681b      	ldr	r3, [r3, #0]
    396a:	005b      	lsls	r3, r3, #1
    396c:	d5ef      	bpl.n	394e <HalCryptoIntrHandle+0x1a>
    396e:	f24f 2058 	movw	r0, #62040	; 0xf258
    3972:	f247 53bd 	movw	r3, #30141	; 0x75bd
    3976:	2111      	movs	r1, #17
    3978:	f2c1 0300 	movt	r3, #4096	; 0x1000
    397c:	f2c0 0003 	movt	r0, #3
    3980:	4798      	blx	r3
    3982:	e7e4      	b.n	394e <HalCryptoIntrHandle+0x1a>

00003984 <HalGmacIntrHandle>:
    3984:	b508      	push	{r3, lr}
    3986:	f240 1300 	movw	r3, #256	; 0x100
    398a:	f2c1 0300 	movt	r3, #4096	; 0x1000
    398e:	6c9b      	ldr	r3, [r3, #72]	; 0x48
    3990:	b173      	cbz	r3, 39b0 <HalGmacIntrHandle+0x2c>
    3992:	f240 2200 	movw	r2, #512	; 0x200
    3996:	f2c1 0200 	movt	r2, #4096	; 0x1000
    399a:	6c90      	ldr	r0, [r2, #72]	; 0x48
    399c:	4798      	blx	r3
    399e:	f44f 4361 	mov.w	r3, #57600	; 0xe100
    39a2:	f2ce 0300 	movt	r3, #57344	; 0xe000
    39a6:	f44f 2280 	mov.w	r2, #262144	; 0x40000
    39aa:	f8c3 2180 	str.w	r2, [r3, #384]	; 0x180
    39ae:	bd08      	pop	{r3, pc}
    39b0:	f240 3314 	movw	r3, #788	; 0x314
    39b4:	f2c1 0300 	movt	r3, #4096	; 0x1000
    39b8:	681b      	ldr	r3, [r3, #0]
    39ba:	005b      	lsls	r3, r3, #1
    39bc:	d5ef      	bpl.n	399e <HalGmacIntrHandle+0x1a>
    39be:	f24f 2058 	movw	r0, #62040	; 0xf258
    39c2:	f247 53bd 	movw	r3, #30141	; 0x75bd
    39c6:	2112      	movs	r1, #18
    39c8:	f2c1 0300 	movt	r3, #4096	; 0x1000
    39cc:	f2c0 0003 	movt	r0, #3
    39d0:	4798      	blx	r3
    39d2:	e7e4      	b.n	399e <HalGmacIntrHandle+0x1a>

000039d4 <HalGdma0Ch0IntrHandle>:
    39d4:	b508      	push	{r3, lr}
    39d6:	f240 1300 	movw	r3, #256	; 0x100
    39da:	f2c1 0300 	movt	r3, #4096	; 0x1000
    39de:	6d1b      	ldr	r3, [r3, #80]	; 0x50
    39e0:	b173      	cbz	r3, 3a00 <HalGdma0Ch0IntrHandle+0x2c>
    39e2:	f240 2200 	movw	r2, #512	; 0x200
    39e6:	f2c1 0200 	movt	r2, #4096	; 0x1000
    39ea:	6d10      	ldr	r0, [r2, #80]	; 0x50
    39ec:	4798      	blx	r3
    39ee:	f44f 4361 	mov.w	r3, #57600	; 0xe100
    39f2:	f2ce 0300 	movt	r3, #57344	; 0xe000
    39f6:	f44f 1280 	mov.w	r2, #1048576	; 0x100000
    39fa:	f8c3 2180 	str.w	r2, [r3, #384]	; 0x180
    39fe:	bd08      	pop	{r3, pc}
    3a00:	f240 3314 	movw	r3, #788	; 0x314
    3a04:	f2c1 0300 	movt	r3, #4096	; 0x1000
    3a08:	681b      	ldr	r3, [r3, #0]
    3a0a:	005b      	lsls	r3, r3, #1
    3a0c:	d5ef      	bpl.n	39ee <HalGdma0Ch0IntrHandle+0x1a>
    3a0e:	f24f 2058 	movw	r0, #62040	; 0xf258
    3a12:	f247 53bd 	movw	r3, #30141	; 0x75bd
    3a16:	2114      	movs	r1, #20
    3a18:	f2c1 0300 	movt	r3, #4096	; 0x1000
    3a1c:	f2c0 0003 	movt	r0, #3
    3a20:	4798      	blx	r3
    3a22:	e7e4      	b.n	39ee <HalGdma0Ch0IntrHandle+0x1a>

00003a24 <HalGdma0Ch1IntrHandle>:
    3a24:	b508      	push	{r3, lr}
    3a26:	f240 1300 	movw	r3, #256	; 0x100
    3a2a:	f2c1 0300 	movt	r3, #4096	; 0x1000
    3a2e:	6d5b      	ldr	r3, [r3, #84]	; 0x54
    3a30:	b173      	cbz	r3, 3a50 <HalGdma0Ch1IntrHandle+0x2c>
    3a32:	f240 2200 	movw	r2, #512	; 0x200
    3a36:	f2c1 0200 	movt	r2, #4096	; 0x1000
    3a3a:	6d50      	ldr	r0, [r2, #84]	; 0x54
    3a3c:	4798      	blx	r3
    3a3e:	f44f 4361 	mov.w	r3, #57600	; 0xe100
    3a42:	f2ce 0300 	movt	r3, #57344	; 0xe000
    3a46:	f44f 1200 	mov.w	r2, #2097152	; 0x200000
    3a4a:	f8c3 2180 	str.w	r2, [r3, #384]	; 0x180
    3a4e:	bd08      	pop	{r3, pc}
    3a50:	f240 3314 	movw	r3, #788	; 0x314
    3a54:	f2c1 0300 	movt	r3, #4096	; 0x1000
    3a58:	681b      	ldr	r3, [r3, #0]
    3a5a:	005b      	lsls	r3, r3, #1
    3a5c:	d5ef      	bpl.n	3a3e <HalGdma0Ch1IntrHandle+0x1a>
    3a5e:	f24f 2058 	movw	r0, #62040	; 0xf258
    3a62:	f247 53bd 	movw	r3, #30141	; 0x75bd
    3a66:	2115      	movs	r1, #21
    3a68:	f2c1 0300 	movt	r3, #4096	; 0x1000
    3a6c:	f2c0 0003 	movt	r0, #3
    3a70:	4798      	blx	r3
    3a72:	e7e4      	b.n	3a3e <HalGdma0Ch1IntrHandle+0x1a>

00003a74 <HalGdma0Ch2IntrHandle>:
    3a74:	b508      	push	{r3, lr}
    3a76:	f240 1300 	movw	r3, #256	; 0x100
    3a7a:	f2c1 0300 	movt	r3, #4096	; 0x1000
    3a7e:	6d9b      	ldr	r3, [r3, #88]	; 0x58
    3a80:	b173      	cbz	r3, 3aa0 <HalGdma0Ch2IntrHandle+0x2c>
    3a82:	f240 2200 	movw	r2, #512	; 0x200
    3a86:	f2c1 0200 	movt	r2, #4096	; 0x1000
    3a8a:	6d90      	ldr	r0, [r2, #88]	; 0x58
    3a8c:	4798      	blx	r3
    3a8e:	f44f 4361 	mov.w	r3, #57600	; 0xe100
    3a92:	f2ce 0300 	movt	r3, #57344	; 0xe000
    3a96:	f44f 0280 	mov.w	r2, #4194304	; 0x400000
    3a9a:	f8c3 2180 	str.w	r2, [r3, #384]	; 0x180
    3a9e:	bd08      	pop	{r3, pc}
    3aa0:	f240 3314 	movw	r3, #788	; 0x314
    3aa4:	f2c1 0300 	movt	r3, #4096	; 0x1000
    3aa8:	681b      	ldr	r3, [r3, #0]
    3aaa:	005b      	lsls	r3, r3, #1
    3aac:	d5ef      	bpl.n	3a8e <HalGdma0Ch2IntrHandle+0x1a>
    3aae:	f24f 2058 	movw	r0, #62040	; 0xf258
    3ab2:	f247 53bd 	movw	r3, #30141	; 0x75bd
    3ab6:	2116      	movs	r1, #22
    3ab8:	f2c1 0300 	movt	r3, #4096	; 0x1000
    3abc:	f2c0 0003 	movt	r0, #3
    3ac0:	4798      	blx	r3
    3ac2:	e7e4      	b.n	3a8e <HalGdma0Ch2IntrHandle+0x1a>

00003ac4 <HalGdma0Ch3IntrHandle>:
    3ac4:	b508      	push	{r3, lr}
    3ac6:	f240 1300 	movw	r3, #256	; 0x100
    3aca:	f2c1 0300 	movt	r3, #4096	; 0x1000
    3ace:	6ddb      	ldr	r3, [r3, #92]	; 0x5c
    3ad0:	b173      	cbz	r3, 3af0 <HalGdma0Ch3IntrHandle+0x2c>
    3ad2:	f240 2200 	movw	r2, #512	; 0x200
    3ad6:	f2c1 0200 	movt	r2, #4096	; 0x1000
    3ada:	6dd0      	ldr	r0, [r2, #92]	; 0x5c
    3adc:	4798      	blx	r3
    3ade:	f44f 4361 	mov.w	r3, #57600	; 0xe100
    3ae2:	f2ce 0300 	movt	r3, #57344	; 0xe000
    3ae6:	f44f 0200 	mov.w	r2, #8388608	; 0x800000
    3aea:	f8c3 2180 	str.w	r2, [r3, #384]	; 0x180
    3aee:	bd08      	pop	{r3, pc}
    3af0:	f240 3314 	movw	r3, #788	; 0x314
    3af4:	f2c1 0300 	movt	r3, #4096	; 0x1000
    3af8:	681b      	ldr	r3, [r3, #0]
    3afa:	005b      	lsls	r3, r3, #1
    3afc:	d5ef      	bpl.n	3ade <HalGdma0Ch3IntrHandle+0x1a>
    3afe:	f24f 2058 	movw	r0, #62040	; 0xf258
    3b02:	f247 53bd 	movw	r3, #30141	; 0x75bd
    3b06:	2117      	movs	r1, #23
    3b08:	f2c1 0300 	movt	r3, #4096	; 0x1000
    3b0c:	f2c0 0003 	movt	r0, #3
    3b10:	4798      	blx	r3
    3b12:	e7e4      	b.n	3ade <HalGdma0Ch3IntrHandle+0x1a>

00003b14 <HalGdma0Ch4IntrHandle>:
    3b14:	b508      	push	{r3, lr}
    3b16:	f240 1300 	movw	r3, #256	; 0x100
    3b1a:	f2c1 0300 	movt	r3, #4096	; 0x1000
    3b1e:	6e1b      	ldr	r3, [r3, #96]	; 0x60
    3b20:	b173      	cbz	r3, 3b40 <HalGdma0Ch4IntrHandle+0x2c>
    3b22:	f240 2200 	movw	r2, #512	; 0x200
    3b26:	f2c1 0200 	movt	r2, #4096	; 0x1000
    3b2a:	6e10      	ldr	r0, [r2, #96]	; 0x60
    3b2c:	4798      	blx	r3
    3b2e:	f44f 4361 	mov.w	r3, #57600	; 0xe100
    3b32:	f2ce 0300 	movt	r3, #57344	; 0xe000
    3b36:	f04f 7280 	mov.w	r2, #16777216	; 0x1000000
    3b3a:	f8c3 2180 	str.w	r2, [r3, #384]	; 0x180
    3b3e:	bd08      	pop	{r3, pc}
    3b40:	f240 3314 	movw	r3, #788	; 0x314
    3b44:	f2c1 0300 	movt	r3, #4096	; 0x1000
    3b48:	681b      	ldr	r3, [r3, #0]
    3b4a:	005b      	lsls	r3, r3, #1
    3b4c:	d5ef      	bpl.n	3b2e <HalGdma0Ch4IntrHandle+0x1a>
    3b4e:	f24f 2058 	movw	r0, #62040	; 0xf258
    3b52:	f247 53bd 	movw	r3, #30141	; 0x75bd
    3b56:	2118      	movs	r1, #24
    3b58:	f2c1 0300 	movt	r3, #4096	; 0x1000
    3b5c:	f2c0 0003 	movt	r0, #3
    3b60:	4798      	blx	r3
    3b62:	e7e4      	b.n	3b2e <HalGdma0Ch4IntrHandle+0x1a>

00003b64 <HalGdma0Ch5IntrHandle>:
    3b64:	b508      	push	{r3, lr}
    3b66:	f240 1300 	movw	r3, #256	; 0x100
    3b6a:	f2c1 0300 	movt	r3, #4096	; 0x1000
    3b6e:	6e5b      	ldr	r3, [r3, #100]	; 0x64
    3b70:	b173      	cbz	r3, 3b90 <HalGdma0Ch5IntrHandle+0x2c>
    3b72:	f240 2200 	movw	r2, #512	; 0x200
    3b76:	f2c1 0200 	movt	r2, #4096	; 0x1000
    3b7a:	6e50      	ldr	r0, [r2, #100]	; 0x64
    3b7c:	4798      	blx	r3
    3b7e:	f44f 4361 	mov.w	r3, #57600	; 0xe100
    3b82:	f2ce 0300 	movt	r3, #57344	; 0xe000
    3b86:	f04f 7200 	mov.w	r2, #33554432	; 0x2000000
    3b8a:	f8c3 2180 	str.w	r2, [r3, #384]	; 0x180
    3b8e:	bd08      	pop	{r3, pc}
    3b90:	f240 3314 	movw	r3, #788	; 0x314
    3b94:	f2c1 0300 	movt	r3, #4096	; 0x1000
    3b98:	681b      	ldr	r3, [r3, #0]
    3b9a:	005b      	lsls	r3, r3, #1
    3b9c:	d5ef      	bpl.n	3b7e <HalGdma0Ch5IntrHandle+0x1a>
    3b9e:	f24f 2058 	movw	r0, #62040	; 0xf258
    3ba2:	f247 53bd 	movw	r3, #30141	; 0x75bd
    3ba6:	2119      	movs	r1, #25
    3ba8:	f2c1 0300 	movt	r3, #4096	; 0x1000
    3bac:	f2c0 0003 	movt	r0, #3
    3bb0:	4798      	blx	r3
    3bb2:	e7e4      	b.n	3b7e <HalGdma0Ch5IntrHandle+0x1a>

00003bb4 <HalGdma1Ch0IntrHandle>:
    3bb4:	b508      	push	{r3, lr}
    3bb6:	f240 1300 	movw	r3, #256	; 0x100
    3bba:	f2c1 0300 	movt	r3, #4096	; 0x1000
    3bbe:	6e9b      	ldr	r3, [r3, #104]	; 0x68
    3bc0:	b173      	cbz	r3, 3be0 <HalGdma1Ch0IntrHandle+0x2c>
    3bc2:	f240 2200 	movw	r2, #512	; 0x200
    3bc6:	f2c1 0200 	movt	r2, #4096	; 0x1000
    3bca:	6e90      	ldr	r0, [r2, #104]	; 0x68
    3bcc:	4798      	blx	r3
    3bce:	f44f 4361 	mov.w	r3, #57600	; 0xe100
    3bd2:	f2ce 0300 	movt	r3, #57344	; 0xe000
    3bd6:	f04f 6280 	mov.w	r2, #67108864	; 0x4000000
    3bda:	f8c3 2180 	str.w	r2, [r3, #384]	; 0x180
    3bde:	bd08      	pop	{r3, pc}
    3be0:	f240 3314 	movw	r3, #788	; 0x314
    3be4:	f2c1 0300 	movt	r3, #4096	; 0x1000
    3be8:	681b      	ldr	r3, [r3, #0]
    3bea:	005b      	lsls	r3, r3, #1
    3bec:	d5ef      	bpl.n	3bce <HalGdma1Ch0IntrHandle+0x1a>
    3bee:	f24f 2058 	movw	r0, #62040	; 0xf258
    3bf2:	f247 53bd 	movw	r3, #30141	; 0x75bd
    3bf6:	211a      	movs	r1, #26
    3bf8:	f2c1 0300 	movt	r3, #4096	; 0x1000
    3bfc:	f2c0 0003 	movt	r0, #3
    3c00:	4798      	blx	r3
    3c02:	e7e4      	b.n	3bce <HalGdma1Ch0IntrHandle+0x1a>

00003c04 <HalGdma1Ch1IntrHandle>:
    3c04:	b508      	push	{r3, lr}
    3c06:	f240 1300 	movw	r3, #256	; 0x100
    3c0a:	f2c1 0300 	movt	r3, #4096	; 0x1000
    3c0e:	6edb      	ldr	r3, [r3, #108]	; 0x6c
    3c10:	b173      	cbz	r3, 3c30 <HalGdma1Ch1IntrHandle+0x2c>
    3c12:	f240 2200 	movw	r2, #512	; 0x200
    3c16:	f2c1 0200 	movt	r2, #4096	; 0x1000
    3c1a:	6ed0      	ldr	r0, [r2, #108]	; 0x6c
    3c1c:	4798      	blx	r3
    3c1e:	f44f 4361 	mov.w	r3, #57600	; 0xe100
    3c22:	f2ce 0300 	movt	r3, #57344	; 0xe000
    3c26:	f04f 6200 	mov.w	r2, #134217728	; 0x8000000
    3c2a:	f8c3 2180 	str.w	r2, [r3, #384]	; 0x180
    3c2e:	bd08      	pop	{r3, pc}
    3c30:	f240 3314 	movw	r3, #788	; 0x314
    3c34:	f2c1 0300 	movt	r3, #4096	; 0x1000
    3c38:	681b      	ldr	r3, [r3, #0]
    3c3a:	005b      	lsls	r3, r3, #1
    3c3c:	d5ef      	bpl.n	3c1e <HalGdma1Ch1IntrHandle+0x1a>
    3c3e:	f24f 2058 	movw	r0, #62040	; 0xf258
    3c42:	f247 53bd 	movw	r3, #30141	; 0x75bd
    3c46:	211b      	movs	r1, #27
    3c48:	f2c1 0300 	movt	r3, #4096	; 0x1000
    3c4c:	f2c0 0003 	movt	r0, #3
    3c50:	4798      	blx	r3
    3c52:	e7e4      	b.n	3c1e <HalGdma1Ch1IntrHandle+0x1a>

00003c54 <HalGdma1Ch2IntrHandle>:
    3c54:	b508      	push	{r3, lr}
    3c56:	f240 1300 	movw	r3, #256	; 0x100
    3c5a:	f2c1 0300 	movt	r3, #4096	; 0x1000
    3c5e:	6f1b      	ldr	r3, [r3, #112]	; 0x70
    3c60:	b173      	cbz	r3, 3c80 <HalGdma1Ch2IntrHandle+0x2c>
    3c62:	f240 2200 	movw	r2, #512	; 0x200
    3c66:	f2c1 0200 	movt	r2, #4096	; 0x1000
    3c6a:	6f10      	ldr	r0, [r2, #112]	; 0x70
    3c6c:	4798      	blx	r3
    3c6e:	f44f 4361 	mov.w	r3, #57600	; 0xe100
    3c72:	f2ce 0300 	movt	r3, #57344	; 0xe000
    3c76:	f04f 5280 	mov.w	r2, #268435456	; 0x10000000
    3c7a:	f8c3 2180 	str.w	r2, [r3, #384]	; 0x180
    3c7e:	bd08      	pop	{r3, pc}
    3c80:	f240 3314 	movw	r3, #788	; 0x314
    3c84:	f2c1 0300 	movt	r3, #4096	; 0x1000
    3c88:	681b      	ldr	r3, [r3, #0]
    3c8a:	005b      	lsls	r3, r3, #1
    3c8c:	d5ef      	bpl.n	3c6e <HalGdma1Ch2IntrHandle+0x1a>
    3c8e:	f24f 2058 	movw	r0, #62040	; 0xf258
    3c92:	f247 53bd 	movw	r3, #30141	; 0x75bd
    3c96:	211c      	movs	r1, #28
    3c98:	f2c1 0300 	movt	r3, #4096	; 0x1000
    3c9c:	f2c0 0003 	movt	r0, #3
    3ca0:	4798      	blx	r3
    3ca2:	e7e4      	b.n	3c6e <HalGdma1Ch2IntrHandle+0x1a>

00003ca4 <HalGdma1Ch3IntrHandle>:
    3ca4:	b508      	push	{r3, lr}
    3ca6:	f240 1300 	movw	r3, #256	; 0x100
    3caa:	f2c1 0300 	movt	r3, #4096	; 0x1000
    3cae:	6f5b      	ldr	r3, [r3, #116]	; 0x74
    3cb0:	b173      	cbz	r3, 3cd0 <HalGdma1Ch3IntrHandle+0x2c>
    3cb2:	f240 2200 	movw	r2, #512	; 0x200
    3cb6:	f2c1 0200 	movt	r2, #4096	; 0x1000
    3cba:	6f50      	ldr	r0, [r2, #116]	; 0x74
    3cbc:	4798      	blx	r3
    3cbe:	f44f 4361 	mov.w	r3, #57600	; 0xe100
    3cc2:	f2ce 0300 	movt	r3, #57344	; 0xe000
    3cc6:	f04f 5200 	mov.w	r2, #536870912	; 0x20000000
    3cca:	f8c3 2180 	str.w	r2, [r3, #384]	; 0x180
    3cce:	bd08      	pop	{r3, pc}
    3cd0:	f240 3314 	movw	r3, #788	; 0x314
    3cd4:	f2c1 0300 	movt	r3, #4096	; 0x1000
    3cd8:	681b      	ldr	r3, [r3, #0]
    3cda:	005b      	lsls	r3, r3, #1
    3cdc:	d5ef      	bpl.n	3cbe <HalGdma1Ch3IntrHandle+0x1a>
    3cde:	f24f 2058 	movw	r0, #62040	; 0xf258
    3ce2:	f247 53bd 	movw	r3, #30141	; 0x75bd
    3ce6:	211d      	movs	r1, #29
    3ce8:	f2c1 0300 	movt	r3, #4096	; 0x1000
    3cec:	f2c0 0003 	movt	r0, #3
    3cf0:	4798      	blx	r3
    3cf2:	e7e4      	b.n	3cbe <HalGdma1Ch3IntrHandle+0x1a>

00003cf4 <HalGdma1Ch4IntrHandle>:
    3cf4:	b508      	push	{r3, lr}
    3cf6:	f240 1300 	movw	r3, #256	; 0x100
    3cfa:	f2c1 0300 	movt	r3, #4096	; 0x1000
    3cfe:	6f9b      	ldr	r3, [r3, #120]	; 0x78
    3d00:	b173      	cbz	r3, 3d20 <HalGdma1Ch4IntrHandle+0x2c>
    3d02:	f240 2200 	movw	r2, #512	; 0x200
    3d06:	f2c1 0200 	movt	r2, #4096	; 0x1000
    3d0a:	6f90      	ldr	r0, [r2, #120]	; 0x78
    3d0c:	4798      	blx	r3
    3d0e:	f44f 4361 	mov.w	r3, #57600	; 0xe100
    3d12:	f2ce 0300 	movt	r3, #57344	; 0xe000
    3d16:	f04f 4280 	mov.w	r2, #1073741824	; 0x40000000
    3d1a:	f8c3 2180 	str.w	r2, [r3, #384]	; 0x180
    3d1e:	bd08      	pop	{r3, pc}
    3d20:	f240 3314 	movw	r3, #788	; 0x314
    3d24:	f2c1 0300 	movt	r3, #4096	; 0x1000
    3d28:	681b      	ldr	r3, [r3, #0]
    3d2a:	005b      	lsls	r3, r3, #1
    3d2c:	d5ef      	bpl.n	3d0e <HalGdma1Ch4IntrHandle+0x1a>
    3d2e:	f24f 2058 	movw	r0, #62040	; 0xf258
    3d32:	f247 53bd 	movw	r3, #30141	; 0x75bd
    3d36:	211e      	movs	r1, #30
    3d38:	f2c1 0300 	movt	r3, #4096	; 0x1000
    3d3c:	f2c0 0003 	movt	r0, #3
    3d40:	4798      	blx	r3
    3d42:	e7e4      	b.n	3d0e <HalGdma1Ch4IntrHandle+0x1a>

00003d44 <HalGdma1Ch5IntrHandle>:
    3d44:	b508      	push	{r3, lr}
    3d46:	f240 1300 	movw	r3, #256	; 0x100
    3d4a:	f2c1 0300 	movt	r3, #4096	; 0x1000
    3d4e:	6fdb      	ldr	r3, [r3, #124]	; 0x7c
    3d50:	b173      	cbz	r3, 3d70 <HalGdma1Ch5IntrHandle+0x2c>
    3d52:	f240 2200 	movw	r2, #512	; 0x200
    3d56:	f2c1 0200 	movt	r2, #4096	; 0x1000
    3d5a:	6fd0      	ldr	r0, [r2, #124]	; 0x7c
    3d5c:	4798      	blx	r3
    3d5e:	f44f 4361 	mov.w	r3, #57600	; 0xe100
    3d62:	f2ce 0300 	movt	r3, #57344	; 0xe000
    3d66:	f04f 4200 	mov.w	r2, #2147483648	; 0x80000000
    3d6a:	f8c3 2180 	str.w	r2, [r3, #384]	; 0x180
    3d6e:	bd08      	pop	{r3, pc}
    3d70:	f240 3314 	movw	r3, #788	; 0x314
    3d74:	f2c1 0300 	movt	r3, #4096	; 0x1000
    3d78:	681b      	ldr	r3, [r3, #0]
    3d7a:	005b      	lsls	r3, r3, #1
    3d7c:	d5ef      	bpl.n	3d5e <HalGdma1Ch5IntrHandle+0x1a>
    3d7e:	f24f 2058 	movw	r0, #62040	; 0xf258
    3d82:	f247 53bd 	movw	r3, #30141	; 0x75bd
    3d86:	211f      	movs	r1, #31
    3d88:	f2c1 0300 	movt	r3, #4096	; 0x1000
    3d8c:	f2c0 0003 	movt	r0, #3
    3d90:	4798      	blx	r3
    3d92:	e7e4      	b.n	3d5e <HalGdma1Ch5IntrHandle+0x1a>

00003d94 <HalSdioDeviceIntrHandle>:
    3d94:	f240 1300 	movw	r3, #256	; 0x100
    3d98:	f2c1 0300 	movt	r3, #4096	; 0x1000
    3d9c:	f44f 4261 	mov.w	r2, #57600	; 0xe100
    3da0:	f2ce 0200 	movt	r2, #57344	; 0xe000
    3da4:	6b1b      	ldr	r3, [r3, #48]	; 0x30
    3da6:	f44f 5180 	mov.w	r1, #4096	; 0x1000
    3daa:	f8c2 1180 	str.w	r1, [r2, #384]	; 0x180
    3dae:	b12b      	cbz	r3, 3dbc <HalSdioDeviceIntrHandle+0x28>
    3db0:	f240 2200 	movw	r2, #512	; 0x200
    3db4:	f2c1 0200 	movt	r2, #4096	; 0x1000
    3db8:	6b10      	ldr	r0, [r2, #48]	; 0x30
    3dba:	4718      	bx	r3
    3dbc:	f240 3314 	movw	r3, #788	; 0x314
    3dc0:	f2c1 0300 	movt	r3, #4096	; 0x1000
    3dc4:	681b      	ldr	r3, [r3, #0]
    3dc6:	005b      	lsls	r3, r3, #1
    3dc8:	d400      	bmi.n	3dcc <HalSdioDeviceIntrHandle+0x38>
    3dca:	4770      	bx	lr
    3dcc:	f24f 2058 	movw	r0, #62040	; 0xf258
    3dd0:	f247 53bd 	movw	r3, #30141	; 0x75bd
    3dd4:	b510      	push	{r4, lr}
    3dd6:	f2c1 0300 	movt	r3, #4096	; 0x1000
    3dda:	210c      	movs	r1, #12
    3ddc:	f2c0 0003 	movt	r0, #3
    3de0:	4798      	blx	r3
    3de2:	bd10      	pop	{r4, pc}

00003de4 <VectorTableInitRtl8195A>:
    3de4:	f243 6365 	movw	r3, #13925	; 0x3665
    3de8:	f2c0 0300 	movt	r3, #0
    3dec:	e92d 4ff0 	stmdb	sp!, {r4, r5, r6, r7, r8, r9, sl, fp, lr}
    3df0:	b09b      	sub	sp, #108	; 0x6c
    3df2:	9302      	str	r3, [sp, #8]
    3df4:	f243 63b5 	movw	r3, #14005	; 0x36b5
    3df8:	f2c0 0300 	movt	r3, #0
    3dfc:	9303      	str	r3, [sp, #12]
    3dfe:	f243 7305 	movw	r3, #14085	; 0x3705
    3e02:	f2c0 0300 	movt	r3, #0
    3e06:	9304      	str	r3, [sp, #16]
    3e08:	f243 7355 	movw	r3, #14165	; 0x3755
    3e0c:	f2c0 0300 	movt	r3, #0
    3e10:	9305      	str	r3, [sp, #20]
    3e12:	f243 73a5 	movw	r3, #14245	; 0x37a5
    3e16:	f2c0 0300 	movt	r3, #0
    3e1a:	9306      	str	r3, [sp, #24]
    3e1c:	f643 5395 	movw	r3, #15765	; 0x3d95
    3e20:	f2c0 0300 	movt	r3, #0
    3e24:	9307      	str	r3, [sp, #28]
    3e26:	f243 73f5 	movw	r3, #14325	; 0x37f5
    3e2a:	f2c0 0300 	movt	r3, #0
    3e2e:	9308      	str	r3, [sp, #32]
    3e30:	f643 0345 	movw	r3, #14405	; 0x3845
    3e34:	f2c0 0300 	movt	r3, #0
    3e38:	9309      	str	r3, [sp, #36]	; 0x24
    3e3a:	f643 0395 	movw	r3, #14485	; 0x3895
    3e3e:	f2c0 0300 	movt	r3, #0
    3e42:	930a      	str	r3, [sp, #40]	; 0x28
    3e44:	f643 03e5 	movw	r3, #14565	; 0x38e5
    3e48:	f2c0 0300 	movt	r3, #0
    3e4c:	930b      	str	r3, [sp, #44]	; 0x2c
    3e4e:	f643 1335 	movw	r3, #14645	; 0x3935
    3e52:	f2c0 0300 	movt	r3, #0
    3e56:	930c      	str	r3, [sp, #48]	; 0x30
    3e58:	f643 1385 	movw	r3, #14725	; 0x3985
    3e5c:	f2c0 0300 	movt	r3, #0
    3e60:	930d      	str	r3, [sp, #52]	; 0x34
    3e62:	f243 33b5 	movw	r3, #13237	; 0x33b5
    3e66:	f2c0 0300 	movt	r3, #0
    3e6a:	930e      	str	r3, [sp, #56]	; 0x38
    3e6c:	f643 13d5 	movw	r3, #14805	; 0x39d5
    3e70:	f2c0 0300 	movt	r3, #0
    3e74:	930f      	str	r3, [sp, #60]	; 0x3c
    3e76:	f643 2325 	movw	r3, #14885	; 0x3a25
    3e7a:	f2c0 0300 	movt	r3, #0
    3e7e:	9310      	str	r3, [sp, #64]	; 0x40
    3e80:	f643 2375 	movw	r3, #14965	; 0x3a75
    3e84:	f2c0 0300 	movt	r3, #0
    3e88:	9311      	str	r3, [sp, #68]	; 0x44
    3e8a:	f643 23c5 	movw	r3, #15045	; 0x3ac5
    3e8e:	f2c0 0300 	movt	r3, #0
    3e92:	9312      	str	r3, [sp, #72]	; 0x48
    3e94:	f643 3315 	movw	r3, #15125	; 0x3b15
    3e98:	f2c0 0300 	movt	r3, #0
    3e9c:	9313      	str	r3, [sp, #76]	; 0x4c
    3e9e:	f643 3365 	movw	r3, #15205	; 0x3b65
    3ea2:	f2c0 0300 	movt	r3, #0
    3ea6:	9314      	str	r3, [sp, #80]	; 0x50
    3ea8:	f643 33b5 	movw	r3, #15285	; 0x3bb5
    3eac:	f2c0 0300 	movt	r3, #0
    3eb0:	9315      	str	r3, [sp, #84]	; 0x54
    3eb2:	f643 4305 	movw	r3, #15365	; 0x3c05
    3eb6:	f2c0 0300 	movt	r3, #0
    3eba:	9316      	str	r3, [sp, #88]	; 0x58
    3ebc:	f643 4355 	movw	r3, #15445	; 0x3c55
    3ec0:	f2c0 0300 	movt	r3, #0
    3ec4:	9317      	str	r3, [sp, #92]	; 0x5c
    3ec6:	f643 43a5 	movw	r3, #15525	; 0x3ca5
    3eca:	f2c0 0300 	movt	r3, #0
    3ece:	9318      	str	r3, [sp, #96]	; 0x60
    3ed0:	f643 43f5 	movw	r3, #15605	; 0x3cf5
    3ed4:	f240 0500 	movw	r5, #0
    3ed8:	f243 4a39 	movw	sl, #13369	; 0x3439
    3edc:	f2c0 0300 	movt	r3, #0
    3ee0:	f2c1 0500 	movt	r5, #4096	; 0x1000
    3ee4:	f243 4985 	movw	r9, #13445	; 0x3485
    3ee8:	f243 48d5 	movw	r8, #13525	; 0x34d5
    3eec:	f243 5c25 	movw	ip, #13605	; 0x3525
    3ef0:	f243 5e75 	movw	lr, #13685	; 0x3575
    3ef4:	f243 57c5 	movw	r7, #13765	; 0x35c5
    3ef8:	f243 6615 	movw	r6, #13845	; 0x3615
    3efc:	f2c0 0a00 	movt	sl, #0
    3f00:	9319      	str	r3, [sp, #100]	; 0x64
    3f02:	2300      	movs	r3, #0
    3f04:	9301      	str	r3, [sp, #4]
    3f06:	461a      	mov	r2, r3
    3f08:	2304      	movs	r3, #4
    3f0a:	681b      	ldr	r3, [r3, #0]
    3f0c:	f2c0 0900 	movt	r9, #0
    3f10:	e885 0009 	stmia.w	r5, {r0, r3}
    3f14:	2008      	movs	r0, #8
    3f16:	6800      	ldr	r0, [r0, #0]
    3f18:	f2c0 0800 	movt	r8, #0
    3f1c:	f2c0 0c00 	movt	ip, #0
    3f20:	f2c0 0e00 	movt	lr, #0
    3f24:	f2c0 0700 	movt	r7, #0
    3f28:	f2c0 0600 	movt	r6, #0
    3f2c:	60a8      	str	r0, [r5, #8]
    3f2e:	200c      	movs	r0, #12
    3f30:	6800      	ldr	r0, [r0, #0]
    3f32:	f8c5 a040 	str.w	sl, [r5, #64]	; 0x40
    3f36:	60e8      	str	r0, [r5, #12]
    3f38:	9b02      	ldr	r3, [sp, #8]
    3f3a:	f643 5b45 	movw	fp, #15685	; 0x3d45
    3f3e:	65eb      	str	r3, [r5, #92]	; 0x5c
    3f40:	9b03      	ldr	r3, [sp, #12]
    3f42:	f240 1400 	movw	r4, #256	; 0x100
    3f46:	662b      	str	r3, [r5, #96]	; 0x60
    3f48:	9b04      	ldr	r3, [sp, #16]
    3f4a:	f240 2100 	movw	r1, #512	; 0x200
    3f4e:	666b      	str	r3, [r5, #100]	; 0x64
    3f50:	9b05      	ldr	r3, [sp, #20]
    3f52:	f8c5 9044 	str.w	r9, [r5, #68]	; 0x44
    3f56:	66ab      	str	r3, [r5, #104]	; 0x68
    3f58:	9b06      	ldr	r3, [sp, #24]
    3f5a:	f8c5 8048 	str.w	r8, [r5, #72]	; 0x48
    3f5e:	66eb      	str	r3, [r5, #108]	; 0x6c
    3f60:	9b07      	ldr	r3, [sp, #28]
    3f62:	f8c5 c04c 	str.w	ip, [r5, #76]	; 0x4c
    3f66:	672b      	str	r3, [r5, #112]	; 0x70
    3f68:	9b08      	ldr	r3, [sp, #32]
    3f6a:	f8c5 e050 	str.w	lr, [r5, #80]	; 0x50
    3f6e:	676b      	str	r3, [r5, #116]	; 0x74
    3f70:	9b09      	ldr	r3, [sp, #36]	; 0x24
    3f72:	656f      	str	r7, [r5, #84]	; 0x54
    3f74:	67ab      	str	r3, [r5, #120]	; 0x78
    3f76:	9b0a      	ldr	r3, [sp, #40]	; 0x28
    3f78:	65ae      	str	r6, [r5, #88]	; 0x58
    3f7a:	67eb      	str	r3, [r5, #124]	; 0x7c
    3f7c:	9b0b      	ldr	r3, [sp, #44]	; 0x2c
    3f7e:	f2c0 0b00 	movt	fp, #0
    3f82:	f8c5 3080 	str.w	r3, [r5, #128]	; 0x80
    3f86:	9b0c      	ldr	r3, [sp, #48]	; 0x30
    3f88:	f2c1 0400 	movt	r4, #4096	; 0x1000
    3f8c:	f8c5 3084 	str.w	r3, [r5, #132]	; 0x84
    3f90:	9b0d      	ldr	r3, [sp, #52]	; 0x34
    3f92:	f2c1 0100 	movt	r1, #4096	; 0x1000
    3f96:	f8c5 3088 	str.w	r3, [r5, #136]	; 0x88
    3f9a:	9b0e      	ldr	r3, [sp, #56]	; 0x38
    3f9c:	f8c5 308c 	str.w	r3, [r5, #140]	; 0x8c
    3fa0:	9b0f      	ldr	r3, [sp, #60]	; 0x3c
    3fa2:	f8c5 3090 	str.w	r3, [r5, #144]	; 0x90
    3fa6:	9b10      	ldr	r3, [sp, #64]	; 0x40
    3fa8:	f8c5 b0bc 	str.w	fp, [r5, #188]	; 0xbc
    3fac:	f8c5 3094 	str.w	r3, [r5, #148]	; 0x94
    3fb0:	9b11      	ldr	r3, [sp, #68]	; 0x44
    3fb2:	f8c5 3098 	str.w	r3, [r5, #152]	; 0x98
    3fb6:	9b12      	ldr	r3, [sp, #72]	; 0x48
    3fb8:	f8c5 309c 	str.w	r3, [r5, #156]	; 0x9c
    3fbc:	9b13      	ldr	r3, [sp, #76]	; 0x4c
    3fbe:	f8c5 30a0 	str.w	r3, [r5, #160]	; 0xa0
    3fc2:	9b14      	ldr	r3, [sp, #80]	; 0x50
    3fc4:	f8c5 30a4 	str.w	r3, [r5, #164]	; 0xa4
    3fc8:	9b15      	ldr	r3, [sp, #84]	; 0x54
    3fca:	f8c5 30a8 	str.w	r3, [r5, #168]	; 0xa8
    3fce:	9b16      	ldr	r3, [sp, #88]	; 0x58
    3fd0:	f8c5 30ac 	str.w	r3, [r5, #172]	; 0xac
    3fd4:	9b17      	ldr	r3, [sp, #92]	; 0x5c
    3fd6:	f8c5 30b0 	str.w	r3, [r5, #176]	; 0xb0
    3fda:	9b18      	ldr	r3, [sp, #96]	; 0x60
    3fdc:	f8c5 30b4 	str.w	r3, [r5, #180]	; 0xb4
    3fe0:	9b19      	ldr	r3, [sp, #100]	; 0x64
    3fe2:	f8c5 30b8 	str.w	r3, [r5, #184]	; 0xb8
    3fe6:	4613      	mov	r3, r2
    3fe8:	50e2      	str	r2, [r4, r3]
    3fea:	50ca      	str	r2, [r1, r3]
    3fec:	3304      	adds	r3, #4
    3fee:	f5b3 7f80 	cmp.w	r3, #256	; 0x100
    3ff2:	f04f 0000 	mov.w	r0, #0
    3ff6:	d1f7      	bne.n	3fe8 <VectorTableInitRtl8195A+0x204>
    3ff8:	f642 0308 	movw	r3, #10248	; 0x2808
    3ffc:	f44f 426d 	mov.w	r2, #60672	; 0xed00
    4000:	f2ce 0200 	movt	r2, #57344	; 0xe000
    4004:	f2c4 0300 	movt	r3, #16384	; 0x4000
    4008:	f04f 5180 	mov.w	r1, #268435456	; 0x10000000
    400c:	6091      	str	r1, [r2, #8]
    400e:	6018      	str	r0, [r3, #0]
    4010:	b01b      	add	sp, #108	; 0x6c
    4012:	e8bd 8ff0 	ldmia.w	sp!, {r4, r5, r6, r7, r8, r9, sl, fp, pc}
    4016:	bf00      	nop

00004018 <VectorTableInitForOSRtl8195A>:
    4018:	f240 0300 	movw	r3, #0
    401c:	f2c1 0300 	movt	r3, #4096	; 0x1000
    4020:	62d8      	str	r0, [r3, #44]	; 0x2c
    4022:	6399      	str	r1, [r3, #56]	; 0x38
    4024:	63da      	str	r2, [r3, #60]	; 0x3c
    4026:	4770      	bx	lr

00004028 <VectorIrqRegisterRtl8195A>:
    4028:	f240 1300 	movw	r3, #256	; 0x100
    402c:	6841      	ldr	r1, [r0, #4]
    402e:	f2c1 0300 	movt	r3, #4096	; 0x1000
    4032:	293f      	cmp	r1, #63	; 0x3f
    4034:	bfd4      	ite	le
    4036:	460a      	movle	r2, r1
    4038:	f1a1 0220 	subgt.w	r2, r1, #32
    403c:	b510      	push	{r4, lr}
    403e:	f853 4022 	ldr.w	r4, [r3, r2, lsl #2]
    4042:	b15c      	cbz	r4, 405c <VectorIrqRegisterRtl8195A+0x34>
    4044:	f240 3314 	movw	r3, #788	; 0x314
    4048:	f2c1 0300 	movt	r3, #4096	; 0x1000
    404c:	f44f 5000 	mov.w	r0, #8192	; 0x2000
    4050:	f2c4 0000 	movt	r0, #16384	; 0x4000
    4054:	681b      	ldr	r3, [r3, #0]
    4056:	4018      	ands	r0, r3
    4058:	b970      	cbnz	r0, 4078 <VectorIrqRegisterRtl8195A+0x50>
    405a:	bd10      	pop	{r4, pc}
    405c:	f240 2100 	movw	r1, #512	; 0x200
    4060:	f2c1 0100 	movt	r1, #4096	; 0x1000
    4064:	6804      	ldr	r4, [r0, #0]
    4066:	6880      	ldr	r0, [r0, #8]
    4068:	f044 0401 	orr.w	r4, r4, #1
    406c:	f841 0022 	str.w	r0, [r1, r2, lsl #2]
    4070:	f843 4022 	str.w	r4, [r3, r2, lsl #2]
    4074:	2001      	movs	r0, #1
    4076:	bd10      	pop	{r4, pc}
    4078:	f24f 207c 	movw	r0, #62076	; 0xf27c
    407c:	f247 53bd 	movw	r3, #30141	; 0x75bd
    4080:	f2c0 0003 	movt	r0, #3
    4084:	f2c1 0300 	movt	r3, #4096	; 0x1000
    4088:	4798      	blx	r3
    408a:	2000      	movs	r0, #0
    408c:	bd10      	pop	{r4, pc}
    408e:	bf00      	nop

00004090 <VectorIrqUnRegisterRtl8195A>:
    4090:	f240 1300 	movw	r3, #256	; 0x100
    4094:	6841      	ldr	r1, [r0, #4]
    4096:	f2c1 0300 	movt	r3, #4096	; 0x1000
    409a:	293f      	cmp	r1, #63	; 0x3f
    409c:	bfd4      	ite	le
    409e:	460a      	movle	r2, r1
    40a0:	f1a1 0220 	subgt.w	r2, r1, #32
    40a4:	b510      	push	{r4, lr}
    40a6:	f853 4022 	ldr.w	r4, [r3, r2, lsl #2]
    40aa:	b154      	cbz	r4, 40c2 <VectorIrqUnRegisterRtl8195A+0x32>
    40ac:	f240 2100 	movw	r1, #512	; 0x200
    40b0:	f2c1 0100 	movt	r1, #4096	; 0x1000
    40b4:	2000      	movs	r0, #0
    40b6:	f841 0022 	str.w	r0, [r1, r2, lsl #2]
    40ba:	f843 0022 	str.w	r0, [r3, r2, lsl #2]
    40be:	2001      	movs	r0, #1
    40c0:	bd10      	pop	{r4, pc}
    40c2:	f240 3314 	movw	r3, #788	; 0x314
    40c6:	f2c1 0300 	movt	r3, #4096	; 0x1000
    40ca:	f44f 5000 	mov.w	r0, #8192	; 0x2000
    40ce:	f2c4 0000 	movt	r0, #16384	; 0x4000
    40d2:	681b      	ldr	r3, [r3, #0]
    40d4:	4018      	ands	r0, r3
    40d6:	b900      	cbnz	r0, 40da <VectorIrqUnRegisterRtl8195A+0x4a>
    40d8:	bd10      	pop	{r4, pc}
    40da:	f24f 20ac 	movw	r0, #62124	; 0xf2ac
    40de:	f247 53bd 	movw	r3, #30141	; 0x75bd
    40e2:	f2c0 0003 	movt	r0, #3
    40e6:	f2c1 0300 	movt	r3, #4096	; 0x1000
    40ea:	4798      	blx	r3
    40ec:	4620      	mov	r0, r4
    40ee:	e7f3      	b.n	40d8 <VectorIrqUnRegisterRtl8195A+0x48>

000040f0 <VectorIrqEnRtl8195A>:
    40f0:	6843      	ldr	r3, [r0, #4]
    40f2:	b470      	push	{r4, r5, r6}
    40f4:	2b3f      	cmp	r3, #63	; 0x3f
    40f6:	dd2b      	ble.n	4150 <VectorIrqEnRtl8195A+0x60>
    40f8:	f642 0104 	movw	r1, #10244	; 0x2804
    40fc:	f642 020c 	movw	r2, #10252	; 0x280c
    4100:	f2c4 0100 	movt	r1, #16384	; 0x4000
    4104:	f2c4 0200 	movt	r2, #16384	; 0x4000
    4108:	f44f 4461 	mov.w	r4, #57600	; 0xe100
    410c:	f2ce 0400 	movt	r4, #57344	; 0xe000
    4110:	680d      	ldr	r5, [r1, #0]
    4112:	3b40      	subs	r3, #64	; 0x40
    4114:	600d      	str	r5, [r1, #0]
    4116:	6811      	ldr	r1, [r2, #0]
    4118:	2501      	movs	r5, #1
    411a:	fa05 f303 	lsl.w	r3, r5, r3
    411e:	430b      	orrs	r3, r1
    4120:	f44f 2100 	mov.w	r1, #524288	; 0x80000
    4124:	6013      	str	r3, [r2, #0]
    4126:	f8c4 1180 	str.w	r1, [r4, #384]	; 0x180
    412a:	68c0      	ldr	r0, [r0, #12]
    412c:	2200      	movs	r2, #0
    412e:	2413      	movs	r4, #19
    4130:	0100      	lsls	r0, r0, #4
    4132:	f104 4360 	add.w	r3, r4, #3758096384	; 0xe0000000
    4136:	b2c0      	uxtb	r0, r0
    4138:	f503 4361 	add.w	r3, r3, #57600	; 0xe100
    413c:	f883 0300 	strb.w	r0, [r3, #768]	; 0x300
    4140:	f44f 4361 	mov.w	r3, #57600	; 0xe100
    4144:	f2ce 0300 	movt	r3, #57344	; 0xe000
    4148:	bc70      	pop	{r4, r5, r6}
    414a:	f843 1022 	str.w	r1, [r3, r2, lsl #2]
    414e:	4770      	bx	lr
    4150:	f44f 4461 	mov.w	r4, #57600	; 0xe100
    4154:	f2ce 0400 	movt	r4, #57344	; 0xe000
    4158:	095a      	lsrs	r2, r3, #5
    415a:	f003 011f 	and.w	r1, r3, #31
    415e:	2601      	movs	r6, #1
    4160:	f102 0560 	add.w	r5, r2, #96	; 0x60
    4164:	fa06 f101 	lsl.w	r1, r6, r1
    4168:	f844 1025 	str.w	r1, [r4, r5, lsl #2]
    416c:	2b00      	cmp	r3, #0
    416e:	68c0      	ldr	r0, [r0, #12]
    4170:	461c      	mov	r4, r3
    4172:	dadd      	bge.n	4130 <VectorIrqEnRtl8195A+0x40>
    4174:	f64e 44fc 	movw	r4, #60668	; 0xecfc
    4178:	f2ce 0400 	movt	r4, #57344	; 0xe000
    417c:	f003 030f 	and.w	r3, r3, #15
    4180:	0100      	lsls	r0, r0, #4
    4182:	b2c0      	uxtb	r0, r0
    4184:	441c      	add	r4, r3
    4186:	7620      	strb	r0, [r4, #24]
    4188:	e7da      	b.n	4140 <VectorIrqEnRtl8195A+0x50>
    418a:	bf00      	nop

0000418c <VectorIrqDisRtl8195A>:
    418c:	6842      	ldr	r2, [r0, #4]
    418e:	2a3f      	cmp	r2, #63	; 0x3f
    4190:	dd16      	ble.n	41c0 <VectorIrqDisRtl8195A+0x34>
    4192:	f642 010c 	movw	r1, #10252	; 0x280c
    4196:	f2c4 0100 	movt	r1, #16384	; 0x4000
    419a:	2301      	movs	r3, #1
    419c:	6808      	ldr	r0, [r1, #0]
    419e:	3a40      	subs	r2, #64	; 0x40
    41a0:	fa03 f202 	lsl.w	r2, r3, r2
    41a4:	4b20      	ldr	r3, [pc, #128]	; (4228 <VectorIrqDisRtl8195A+0x9c>)
    41a6:	ea20 0202 	bic.w	r2, r0, r2
    41aa:	600a      	str	r2, [r1, #0]
    41ac:	f503 7180 	add.w	r1, r3, #256	; 0x100
    41b0:	e001      	b.n	41b6 <VectorIrqDisRtl8195A+0x2a>
    41b2:	428b      	cmp	r3, r1
    41b4:	d034      	beq.n	4220 <VectorIrqDisRtl8195A+0x94>
    41b6:	f853 2f04 	ldr.w	r2, [r3, #4]!
    41ba:	2a00      	cmp	r2, #0
    41bc:	d0f9      	beq.n	41b2 <VectorIrqDisRtl8195A+0x26>
    41be:	4770      	bx	lr
    41c0:	1e13      	subs	r3, r2, #0
    41c2:	db13      	blt.n	41ec <VectorIrqDisRtl8195A+0x60>
    41c4:	f003 021f 	and.w	r2, r3, #31
    41c8:	2101      	movs	r1, #1
    41ca:	4091      	lsls	r1, r2
    41cc:	095a      	lsrs	r2, r3, #5
    41ce:	f103 4360 	add.w	r3, r3, #3758096384	; 0xe0000000
    41d2:	f503 4361 	add.w	r3, r3, #57600	; 0xe100
    41d6:	2000      	movs	r0, #0
    41d8:	f883 0300 	strb.w	r0, [r3, #768]	; 0x300
    41dc:	f44f 4361 	mov.w	r3, #57600	; 0xe100
    41e0:	f2ce 0300 	movt	r3, #57344	; 0xe000
    41e4:	3220      	adds	r2, #32
    41e6:	f843 1022 	str.w	r1, [r3, r2, lsl #2]
    41ea:	4770      	bx	lr
    41ec:	f64e 43fc 	movw	r3, #60668	; 0xecfc
    41f0:	f2ce 0300 	movt	r3, #57344	; 0xe000
    41f4:	f002 010f 	and.w	r1, r2, #15
    41f8:	b410      	push	{r4}
    41fa:	440b      	add	r3, r1
    41fc:	2400      	movs	r4, #0
    41fe:	761c      	strb	r4, [r3, #24]
    4200:	f44f 4361 	mov.w	r3, #57600	; 0xe100
    4204:	f2ce 0300 	movt	r3, #57344	; 0xe000
    4208:	f002 011f 	and.w	r1, r2, #31
    420c:	2001      	movs	r0, #1
    420e:	0952      	lsrs	r2, r2, #5
    4210:	fa00 f101 	lsl.w	r1, r0, r1
    4214:	3220      	adds	r2, #32
    4216:	f843 1022 	str.w	r1, [r3, r2, lsl #2]
    421a:	f85d 4b04 	ldr.w	r4, [sp], #4
    421e:	4770      	bx	lr
    4220:	f44f 2100 	mov.w	r1, #524288	; 0x80000
    4224:	2313      	movs	r3, #19
    4226:	e7d2      	b.n	41ce <VectorIrqDisRtl8195A+0x42>
    4228:	100000fc 	.word	0x100000fc

0000422c <_UartRxDmaIrqHandle>:
    422c:	b570      	push	{r4, r5, r6, lr}
    422e:	4604      	mov	r4, r0
    4230:	6c43      	ldr	r3, [r0, #68]	; 0x44
    4232:	68dd      	ldr	r5, [r3, #12]
    4234:	685e      	ldr	r6, [r3, #4]
    4236:	4628      	mov	r0, r5
    4238:	6a33      	ldr	r3, [r6, #32]
    423a:	4798      	blx	r3
    423c:	69f3      	ldr	r3, [r6, #28]
    423e:	4628      	mov	r0, r5
    4240:	4798      	blx	r3
    4242:	6933      	ldr	r3, [r6, #16]
    4244:	4628      	mov	r0, r5
    4246:	4798      	blx	r3
    4248:	f894 3026 	ldrb.w	r3, [r4, #38]	; 0x26
    424c:	f894 1024 	ldrb.w	r1, [r4, #36]	; 0x24
    4250:	f503 1380 	add.w	r3, r3, #1048576	; 0x100000
    4254:	f503 7380 	add.w	r3, r3, #256	; 0x100
    4258:	029b      	lsls	r3, r3, #10
    425a:	695a      	ldr	r2, [r3, #20]
    425c:	6a23      	ldr	r3, [r4, #32]
    425e:	f022 0261 	bic.w	r2, r2, #97	; 0x61
    4262:	2b22      	cmp	r3, #34	; 0x22
    4264:	bf0c      	ite	eq
    4266:	2310      	moveq	r3, #16
    4268:	2321      	movne	r3, #33	; 0x21
    426a:	6223      	str	r3, [r4, #32]
    426c:	6da3      	ldr	r3, [r4, #88]	; 0x58
    426e:	430a      	orrs	r2, r1
    4270:	f884 2024 	strb.w	r2, [r4, #36]	; 0x24
    4274:	b10b      	cbz	r3, 427a <_UartRxDmaIrqHandle+0x4e>
    4276:	6ea0      	ldr	r0, [r4, #104]	; 0x68
    4278:	4798      	blx	r3
    427a:	2000      	movs	r0, #0
    427c:	bd70      	pop	{r4, r5, r6, pc}
    427e:	bf00      	nop

00004280 <HalRuartPutCRtl8195a>:
    4280:	f890 3026 	ldrb.w	r3, [r0, #38]	; 0x26
    4284:	f503 1380 	add.w	r3, r3, #1048576	; 0x100000
    4288:	f503 7380 	add.w	r3, r3, #256	; 0x100
    428c:	029b      	lsls	r3, r3, #10
    428e:	695a      	ldr	r2, [r3, #20]
    4290:	0652      	lsls	r2, r2, #25
    4292:	bf46      	itte	mi
    4294:	2000      	movmi	r0, #0
    4296:	6259      	strmi	r1, [r3, #36]	; 0x24
    4298:	2001      	movpl	r0, #1
    429a:	4770      	bx	lr

0000429c <HalRuartGetCRtl8195a>:
    429c:	f890 3026 	ldrb.w	r3, [r0, #38]	; 0x26
    42a0:	f503 1380 	add.w	r3, r3, #1048576	; 0x100000
    42a4:	f503 7380 	add.w	r3, r3, #256	; 0x100
    42a8:	029b      	lsls	r3, r3, #10
    42aa:	695a      	ldr	r2, [r3, #20]
    42ac:	07d2      	lsls	r2, r2, #31
    42ae:	bf43      	ittte	mi
    42b0:	6a5b      	ldrmi	r3, [r3, #36]	; 0x24
    42b2:	2000      	movmi	r0, #0
    42b4:	700b      	strbmi	r3, [r1, #0]
    42b6:	2002      	movpl	r0, #2
    42b8:	4770      	bx	lr
    42ba:	bf00      	nop

